 ConEmuLn.x64

 Timestamp is 5847d8c1 (Wed Dec  7 12:39:13 2016)

 Preferred load address is 0000000180000000

 Start         Length     Name                   Class
 0001:00000000 0000ef70H .text$mn                CODE
 0001:0000ef70 00000020H .text$mn$00             CODE
 0001:0000ef90 00000270H .text$x                 CODE
 0002:00000000 00000310H .idata$5                DATA
 0002:00000310 00000010H .00cfg                  DATA
 0002:00000320 00000008H .CRT$XCA                DATA
 0002:00000328 00000008H .CRT$XCZ                DATA
 0002:00000330 00000008H .CRT$XIA                DATA
 0002:00000338 00000018H .CRT$XIC                DATA
 0002:00000350 00000008H .CRT$XIZ                DATA
 0002:00000358 00000008H .CRT$XPA                DATA
 0002:00000360 00000010H .CRT$XPX                DATA
 0002:00000370 00000008H .CRT$XPXA               DATA
 0002:00000378 00000008H .CRT$XPZ                DATA
 0002:00000380 00000008H .CRT$XTA                DATA
 0002:00000388 00000008H .CRT$XTZ                DATA
 0002:00000390 000077f8H .rdata                  DATA
 0002:00007b88 00000000H .rdata$r                DATA
 0002:00007b88 000002a8H .rdata$zzzdbg           DATA
 0002:00007e30 00000008H .rtc$IAA                DATA
 0002:00007e38 00000008H .rtc$IZZ                DATA
 0002:00007e40 00000008H .rtc$TAA                DATA
 0002:00007e48 00000008H .rtc$TZZ                DATA
 0002:00007e50 00000be0H .xdata                  DATA
 0002:00008a30 00000190H .edata                  DATA
 0002:00008bc0 00000064H .idata$2                DATA
 0002:00008c24 00000014H .idata$3                DATA
 0002:00008c38 00000310H .idata$4                DATA
 0002:00008f48 000006b0H .idata$6                DATA
 0003:00000000 00000ab0H .data                   DATA
 0003:00000ab0 00000000H .data$r                 DATA
 0003:00000ab0 0000a1a8H .bss                    DATA
 0004:00000000 00000f24H .pdata                  DATA
 0005:00000000 00000080H .gfids$x                DATA
 0005:00000080 00000014H .gfids$y                DATA
 0006:00000000 00000060H .rsrc$01                DATA
 0006:00000060 00000318H .rsrc$02                DATA

  Address         Publics by Value              Rva+Base               Lib:Object

 0000:00000000       __guard_iat_table          0000000000000000     <absolute>
 0000:00000000       __dynamic_value_reloc_table 0000000000000000     <absolute>
 0000:00000000       __guard_iat_count          0000000000000000     <absolute>
 0000:00000000       __guard_longjmp_table      0000000000000000     <absolute>
 0000:00000000       __guard_longjmp_count      0000000000000000     <absolute>
 0000:00000000       __guard_fids_count         0000000000000000     <absolute>
 0000:00000000       ___safe_se_handler_table   0000000000000000     <absolute>
 0000:00000000       ___safe_se_handler_count   0000000000000000     <absolute>
 0000:00000000       __guard_fids_table         0000000000000000     <absolute>
 0000:00000100       __guard_flags              0000000000000100     <absolute>
 0000:00000000       __ImageBase                0000000180000000     <linker-defined>
 0001:00000000       ConfigureW                 0000000180001000 f   ConEmuLn.obj
 0001:00000038       ?ExitFARW3@@YAXPEAX@Z      0000000180001038 f   ConEmuLn.obj
 0001:00000038       ExitFARW                   0000000180001038 f   ConEmuLn.obj
 0001:00000070       ?ConfigureW3@@YAHPEAX@Z    0000000180001070 f   ConEmuLn.obj
 0001:0000020c       ?ExitPlugin@@YAXXZ         000000018000120c f   ConEmuLn.obj
 0001:00000260       ?GetMsgW@@YAPEB_WH@Z       0000000180001260 f   ConEmuLn.obj
 0001:0000029c       ?GetPluginInfoWcmn@@YAXPEAX@Z 000000018000129c f   ConEmuLn.obj
 0001:000002c0       ?LoadFarVersion@@YAHXZ     00000001800012c0 f   ConEmuLn.obj
 0001:000005d4       ?OnConEmuLoaded@@YAXPEAUConEmuLoadedArg@@@Z 00000001800015d4 f   ConEmuLn.obj
 0001:00000608       ?OpenPluginWcmn@@YAPEAXH_J@Z 0000000180001608 f   ConEmuLn.obj
 0001:00000640       ?OpenW@@YAPEAXPEBX@Z       0000000180001640 f   ConEmuLn.obj
 0001:00000670       ?PaintBack@@YAXPEAUHDC__@@KUtagRECT@@@Z 0000000180001670 f   ConEmuLn.obj
 0001:000006b8       ?PaintConEmuBackground@@YAHPEAUPaintBackgroundArg@@@Z 00000001800016b8 f   ConEmuLn.obj
 0001:00000950       ?PaintLines@@YAXPEAUHDC__@@KHHHHH@Z 0000000180001950 f   ConEmuLn.obj
 0001:00000a7c       ?SettingsLoad@@YAXXZ       0000000180001a7c f   ConEmuLn.obj
 0001:00000ad4       ?SettingsLoadReg@@YAXPEB_W@Z 0000000180001ad4 f   ConEmuLn.obj
 0001:00000be0       ?SettingsSave@@YAXXZ       0000000180001be0 f   ConEmuLn.obj
 0001:00000c18       ?SettingsSaveReg@@YAXPEB_W@Z 0000000180001c18 f   ConEmuLn.obj
 0001:00000cdc       ?StartPlugin@@YAXH@Z       0000000180001cdc f   ConEmuLn.obj
 0001:00000e78       ?StringCchCatW@@YAJPEA_W_KPEB_W@Z 0000000180001e78 f i ConEmuLn.obj
 0001:00000f48       ?StringCchCopyW@@YAJPEA_W_KPEB_W@Z 0000000180001f48 f i ConEmuLn.obj
 0001:00000fc0       DllMain                    0000000180001fc0 f   ConEmuLn.obj
 0001:00001018       GetMinFarVersionW          0000000180002018 f   ConEmuLn.obj
 0001:00001020       SetStartupInfoW            0000000180002020 f   ConEmuLn.obj
 0001:000019e0       ?ConfigureW995@@YAHH@Z     00000001800029e0 f   ConEmuLn995.obj
 0001:000019f4       ?ExitFARW995@@YAXXZ        00000001800029f4 f   ConEmuLn995.obj
 0001:00001a48       ?GetMsgW995@@YAPEB_WH@Z    0000000180002a48 f   ConEmuLn995.obj
 0001:00001a70       ?GetPluginInfoW995@@YAXPEAX@Z 0000000180002a70 f   ConEmuLn995.obj
 0001:00001ae0       ?SetStartupInfoW995@@YAXPEAX@Z 0000000180002ae0 f   ConEmuLn995.obj
 0001:00001c7c       ?SettingsLoadW995@@YAXXZ   0000000180002c7c f   ConEmuLn995.obj
 0001:00001c88       ?SettingsSaveW995@@YAXXZ   0000000180002c88 f   ConEmuLn995.obj
 0001:00001c94       OpenPluginW                0000000180002c94 f   ConEmuLn995.obj
 0001:0000268c       ?ConfigureW1900@@YAHH@Z    000000018000368c f   ConEmuLn1900.obj
 0001:000026a0       ?ExitFARW1900@@YAXXZ       00000001800036a0 f   ConEmuLn1900.obj
 0001:000026dc       ?GetMsgW1900@@YAPEB_WH@Z   00000001800036dc f   ConEmuLn1900.obj
 0001:00002708       ?GetPluginInfoW1900@@YAXPEAX@Z 0000000180003708 f   ConEmuLn1900.obj
 0001:0000278c       ?OpenW1900@@YAPEAXPEBX@Z   000000018000378c f   ConEmuLn1900.obj
 0001:0000278c       ?OpenW2800@@YAPEAXPEBX@Z   000000018000378c f   ConEmuLn2800.obj
 0001:000027a4       ?SetStartupInfoW1900@@YAXPEAX@Z 00000001800037a4 f   ConEmuLn1900.obj
 0001:000028d4       ?SettingsLoadW1900@@YAXXZ  00000001800038d4 f   ConEmuLn1900.obj
 0001:00002a14       ?SettingsSaveW1900@@YAXXZ  0000000180003a14 f   ConEmuLn1900.obj
 0001:00003604       ?ConfigureW2800@@YAHH@Z    0000000180004604 f   ConEmuLn2800.obj
 0001:00003618       ?ExitFARW2800@@YAXXZ       0000000180004618 f   ConEmuLn2800.obj
 0001:00003654       ?GetMsgW2800@@YAPEB_WH@Z   0000000180004654 f   ConEmuLn2800.obj
 0001:00003680       ?GetPluginInfoW2800@@YAXPEAX@Z 0000000180004680 f   ConEmuLn2800.obj
 0001:00003704       ?SetStartupInfoW2800@@YAXPEAX@Z 0000000180004704 f   ConEmuLn2800.obj
 0001:00003834       ?SettingsLoadW2800@@YAXXZ  0000000180004834 f   ConEmuLn2800.obj
 0001:0000397c       ?SettingsSaveW2800@@YAXXZ  000000018000497c f   ConEmuLn2800.obj
 0001:00003a98       GetGlobalInfoW             0000000180004a98 f   ConEmuLn2800.obj
 0001:000044f8       ?SettingsLoadA@@YAXXZ      00000001800054f8 f   ConEmuLnA.obj
 0001:00004504       ?SettingsSaveA@@YAXXZ      0000000180005504 f   ConEmuLnA.obj
 0001:00004510       Configure                  0000000180005510 f   ConEmuLnA.obj
 0001:00004524       ExitFAR                    0000000180005524 f   ConEmuLnA.obj
 0001:00004580       GetMinFarVersion           0000000180005580 f   ConEmuLnA.obj
 0001:000045b8       GetPluginInfo              00000001800055b8 f   ConEmuLnA.obj
 0001:00004640       OpenPlugin                 0000000180005640 f   ConEmuLnA.obj
 0001:00004660       SetStartupInfo             0000000180005660 f   ConEmuLnA.obj
 0001:00004824       ?HeapDeinitialize@@YAXXZ   0000000180005824 f   Memory.obj
 0001:00004848       ?HeapInitialize@@YA_NXZ    0000000180005848 f   Memory.obj
 0001:00004880       ?xf_calloc@@YAPEAX_K0@Z    0000000180005880 f   Memory.obj
 0001:0000489c       ?xf_free@@YAXPEAX@Z        000000018000589c f   Memory.obj
 0001:000048c2       GetFileVersionInfoSizeW    00000001800058c2 f   version:VERSION.dll
 0001:000048c8       GetFileVersionInfoW        00000001800058c8 f   version:VERSION.dll
 0001:000048ce       VerQueryValueW             00000001800058ce f   version:VERSION.dll
 0001:000048f0       _alloca_probe              00000001800058f0 f   LIBCMT:_chkstk_.obj
 0001:000048f0       __chkstk                   00000001800058f0 f   LIBCMT:_chkstk_.obj
 0001:00004c90       _DllMainCRTStartup         0000000180005c90 f   LIBCMT:dll_dllmain.obj
 0001:00004cd0       __scrt_acquire_startup_lock 0000000180005cd0 f   LIBCMT:utility.obj
 0001:00004d0c       __scrt_dllmain_after_initialize_c 0000000180005d0c f   LIBCMT:utility.obj
 0001:00004d40       __scrt_dllmain_before_initialize_c 0000000180005d40 f   LIBCMT:utility.obj
 0001:00004d58       __scrt_dllmain_crt_thread_attach 0000000180005d58 f   LIBCMT:utility.obj
 0001:00004d80       __scrt_dllmain_crt_thread_detach 0000000180005d80 f   LIBCMT:utility.obj
 0001:00004d98       __scrt_dllmain_exception_filter 0000000180005d98 f   LIBCMT:utility.obj
 0001:00004dfc       __scrt_dllmain_uninitialize_c 0000000180005dfc f   LIBCMT:utility.obj
 0001:00004e2c       __scrt_dllmain_uninitialize_critical 0000000180005e2c f   LIBCMT:utility.obj
 0001:00004e40       __scrt_initialize_crt      0000000180005e40 f   LIBCMT:utility.obj
 0001:00004e8c       __scrt_initialize_onexit_tables 0000000180005e8c f   LIBCMT:utility.obj
 0001:00004f58       __scrt_is_nonwritable_in_current_image 0000000180005f58 f   LIBCMT:utility.obj
 0001:00004ff4       __scrt_release_startup_lock 0000000180005ff4 f   LIBCMT:utility.obj
 0001:00005018       __scrt_uninitialize_crt    0000000180006018 f   LIBCMT:utility.obj
 0001:00005044       _onexit                    0000000180006044 f   LIBCMT:utility.obj
 0001:00005094       atexit                     0000000180006094 f   LIBCMT:utility.obj
 0001:000050ac       __security_init_cookie     00000001800060ac f   LIBCMT:gs_support.obj
 0001:00005158       ?__scrt_initialize_type_info@@YAXXZ 0000000180006158 f   LIBCMT:tncleanup.obj
 0001:00005168       ?__scrt_uninitialize_type_info@@YAXXZ 0000000180006168 f   LIBCMT:tncleanup.obj
 0001:00005174       __local_stdio_printf_options 0000000180006174 f i LIBCMT:default_local_stdio_options.obj
 0001:0000517c       __local_stdio_scanf_options 000000018000617c f i LIBCMT:default_local_stdio_options.obj
 0001:00005184       __scrt_initialize_default_local_stdio_options 0000000180006184 f   LIBCMT:default_local_stdio_options.obj
 0001:000051a0       __scrt_get_dyn_tls_init_callback 00000001800061a0 f   LIBCMT:dyn_tls_init.obj
 0001:000051a8       __crt_debugger_hook        00000001800061a8 f   LIBCMT:utility_desktop.obj
 0001:000051b0       __scrt_fastfail            00000001800061b0 f   LIBCMT:utility_desktop.obj
 0001:000052f8       _RTC_Initialize            00000001800062f8 f   LIBCMT:_initsect_.obj
 0001:00005344       _RTC_Terminate             0000000180006344 f   LIBCMT:_initsect_.obj
 0001:00005390       _guard_check_icall         0000000180006390 f i LIBCMT:checkcfg.obj
 0001:00005398       __isa_available_init       0000000180006398 f   LIBCMT:_cpu_disp_.obj
 0001:00005560       _get_startup_argv_mode     0000000180006560 f   LIBCMT:argv_mode.obj
 0001:00005568       __scrt_is_ucrt_dll_in_use  0000000180006568 f   LIBCMT:ucrt_detection.obj
 0001:00005574       _guard_check_icall_nop     0000000180006574 f i LIBCMT:guard_support.obj
 0001:00005574       __except_validate_context_record 0000000180006574 f i libvcruntime:jbcxrval.obj
 0001:00005580       __C_specific_handler       0000000180006580 f   libvcruntime:_chandler_.obj
 0001:00005790       memcpy                     0000000180006790 f   libvcruntime:memcpy.obj
 0001:00005790       memmove                    0000000180006790 f   libvcruntime:memcpy.obj
 0001:00005be0       memset                     0000000180006be0 f   libvcruntime:memset.obj
 0001:00005d80       __vcrt_initialize          0000000180006d80 f   libvcruntime:initialization.obj
 0001:00005db4       __vcrt_thread_attach       0000000180006db4 f   libvcruntime:initialization.obj
 0001:00005dc8       __vcrt_thread_detach       0000000180006dc8 f   libvcruntime:initialization.obj
 0001:00005ddc       __vcrt_uninitialize        0000000180006ddc f   libvcruntime:initialization.obj
 0001:00005dfc       __vcrt_uninitialize_critical 0000000180006dfc f   libvcruntime:initialization.obj
 0001:00005e0c       __std_type_info_destroy_list 0000000180006e0c f   libvcruntime:std_type_info.obj
 0001:00005e50       _local_unwind              0000000180006e50 f   libvcruntime:_jmpuwind_.obj
 0001:00005e80       _NLG_Notify                0000000180006e80 f   libvcruntime:_jmpuwind_.obj
 0001:00005ea0       __NLG_Dispatch2            0000000180006ea0 f   libvcruntime:_jmpuwind_.obj
 0001:00005eb0       __NLG_Return2              0000000180006eb0 f   libvcruntime:_jmpuwind_.obj
 0001:00005eb4       __vcrt_freefls             0000000180006eb4 f   libvcruntime:per_thread_data.obj
 0001:00005ed4       __vcrt_freeptd             0000000180006ed4 f   libvcruntime:per_thread_data.obj
 0001:00005f24       __vcrt_getptd_noexit       0000000180006f24 f   libvcruntime:per_thread_data.obj
 0001:00005fdc       __vcrt_initialize_ptd      0000000180006fdc f   libvcruntime:per_thread_data.obj
 0001:0000601c       __vcrt_uninitialize_ptd    000000018000701c f   libvcruntime:per_thread_data.obj
 0001:00006040       __vcrt_initialize_locks    0000000180007040 f   libvcruntime:locks.obj
 0001:00006088       __vcrt_uninitialize_locks  0000000180007088 f   libvcruntime:locks.obj
 0001:00006288       __vcrt_FlsAlloc            0000000180007288 f   libvcruntime:winapi_downlevel.obj
 0001:000062dc       __vcrt_FlsFree             00000001800072dc f   libvcruntime:winapi_downlevel.obj
 0001:00006330       __vcrt_FlsGetValue         0000000180007330 f   libvcruntime:winapi_downlevel.obj
 0001:00006384       __vcrt_FlsSetValue         0000000180007384 f   libvcruntime:winapi_downlevel.obj
 0001:000063ec       __vcrt_InitializeCriticalSectionEx 00000001800073ec f   libvcruntime:winapi_downlevel.obj
 0001:00006464       __vcrt_initialize_winapi_thunks 0000000180007464 f   libvcruntime:winapi_downlevel.obj
 0001:000064b0       __vcrt_uninitialize_winapi_thunks 00000001800074b0 f   libvcruntime:winapi_downlevel.obj
 0001:000064f0       __vcrt_initialize_pure_virtual_call_handler 00000001800074f0 f   libvcruntime:purevirt_data.obj
 0001:00006514       ??$is_overflow_condition@K@__crt_strtox@@YA_NIK@Z 0000000180007514 f i libucrt:strtox.obj
 0001:00006540       ??$make_c_string_character_source@_WPEAPEA_W@__crt_strtox@@YA?AV?$c_string_character_source@_W@0@QEB_WQEAPEA_W@Z 0000000180007540 f i libucrt:strtox.obj
 0001:00006540       ??$make_c_string_character_source@DPEAPEAD@__crt_strtox@@YA?AV?$c_string_character_source@D@0@QEBDQEAPEAD@Z 0000000180007540 f i libucrt:strtox.obj
 0001:00006554       ??$parse_integer@KV?$c_string_character_source@D@__crt_strtox@@@__crt_strtox@@YAKQEAU__crt_locale_pointers@@V?$c_string_character_source@D@0@H_N@Z 0000000180007554 f i libucrt:strtox.obj
 0001:00006868       ??$parse_integer@KV?$c_string_character_source@_W@__crt_strtox@@@__crt_strtox@@YAKQEAU__crt_locale_pointers@@V?$c_string_character_source@_W@0@H_N@Z 0000000180007868 f i libucrt:strtox.obj
 0001:00006f3c       ??0_LocaleUpdate@@QEAA@QEAU__crt_locale_pointers@@@Z 0000000180007f3c f i libucrt:strtox.obj
 0001:00006fcc       strtoul                    0000000180007fcc f   libucrt:strtox.obj
 0001:00006ffc       wcstoul                    0000000180007ffc f   libucrt:strtox.obj
 0001:0000702c       _initterm                  000000018000802c f   libucrt:initterm.obj
 0001:000070a4       _initterm_e                00000001800080a4 f   libucrt:initterm.obj
 0001:000070f0       _seh_filter_dll            00000001800080f0 f   libucrt:exception_filter.obj
 0001:00007104       _seh_filter_exe            0000000180008104 f   libucrt:exception_filter.obj
 0001:000074c4       __acrt_initialize_thread_local_exit_callback 00000001800084c4 f   libucrt:exit.obj
 0001:000074cc       _cexit                     00000001800084cc f   libucrt:exit.obj
 0001:000074dc       _exit                      00000001800084dc f   libucrt:exit.obj
 0001:000074e8       _is_c_termination_complete 00000001800084e8 f   libucrt:exit.obj
 0001:000076ac       __acrt_allocate_buffer_for_argv 00000001800086ac f   libucrt:argv_parsing.obj
 0001:00007710       _configure_narrow_argv     0000000180008710 f   libucrt:argv_parsing.obj
 0001:00007a6c       __dcrt_uninitialize_environments_nolock 0000000180008a6c f   libucrt:environment_initialization.obj
 0001:00007aa4       _initialize_narrow_environment 0000000180008aa4 f   libucrt:environment_initialization.obj
 0001:00007aac       ??$?RV<lambda_b8c45f8f788dd370798f47cfe8ac3a86>@@AEAV<lambda_4e60a939b0d047cfe11ddc22648dfba9>@@V<lambda_332c3edc96d0294ec56c57d38c1cdfd5>@@@?$__crt_seh_guarded_call@H@@QEAAH$$QEAV<lambda_b8c45f8f788dd370798f47cfe8ac3a86>@@AEAV<lambda_4e60a939b0d047cfe11ddc22648dfba9>@@$$QEAV<lambda_332c3edc96d0294ec56c57d38c1cdfd5>@@@Z 0000000180008aac f i libucrt:onexit.obj
 0001:00007ae8       ??$?RV<lambda_e24bbb7b643b32fcea6fa61b31d4c984>@@AEAV<lambda_275893d493268fdec8709772e3fcec0e>@@V<lambda_9d71df4d7cf3f480f8d633942495c3b0>@@@?$__crt_seh_guarded_call@H@@QEAAH$$QEAV<lambda_e24bbb7b643b32fcea6fa61b31d4c984>@@AEAV<lambda_275893d493268fdec8709772e3fcec0e>@@$$QEAV<lambda_9d71df4d7cf3f480f8d633942495c3b0>@@@Z 0000000180008ae8 f i libucrt:onexit.obj
 0001:00007e64       _crt_atexit                0000000180008e64 f   libucrt:onexit.obj
 0001:00007e74       _execute_onexit_table      0000000180008e74 f   libucrt:onexit.obj
 0001:00007eb0       _initialize_onexit_table   0000000180008eb0 f   libucrt:onexit.obj
 0001:00007ef0       _register_onexit_function  0000000180008ef0 f   libucrt:onexit.obj
 0001:00007f80       __acrt_uninitialize_command_line 0000000180008f80 f   libucrt:argv_data.obj
 0001:0000804c       ??$uninitialize@V<lambda_30a498feb8538b5c3153c22026e33470>@@@?$dual_state_global@PEAU__crt_multibyte_data@@@__crt_state_management@@QEAAX$$QEAV<lambda_30a498feb8538b5c3153c22026e33470>@@@Z 000000018000904c f i libucrt:initialization.obj
 0001:000080cc       __acrt_initialize          00000001800090cc f   libucrt:initialization.obj
 0001:000080e0       __acrt_thread_attach       00000001800090e0 f   libucrt:initialization.obj
 0001:000080f4       __acrt_thread_detach       00000001800090f4 f   libucrt:initialization.obj
 0001:00008104       __acrt_uninitialize        0000000180009104 f   libucrt:initialization.obj
 0001:00008118       __acrt_uninitialize_critical 0000000180009118 f   libucrt:initialization.obj
 0001:00008128       terminate                  0000000180009128 f   libucrt:terminate.obj
 0001:00008150       _free_base                 0000000180009150 f   libucrt:free_base.obj
 0001:00008190       _malloc_base               0000000180009190 f   libucrt:malloc_base.obj
 0001:000081f0       strcpy_s                   00000001800091f0 f   libucrt:strcpy_s.obj
 0001:00008250       abort                      0000000180009250 f   libucrt:abort.obj
 0001:000082a8       _calloc_base               00000001800092a8 f   libucrt:calloc_base.obj
 0001:00008320       __acrt_call_reportfault    0000000180009320 f   libucrt:invalid_parameter.obj
 0001:0000847c       __acrt_initialize_invalid_parameter_handler 000000018000947c f   libucrt:invalid_parameter.obj
 0001:00008484       _invalid_parameter         0000000180009484 f   libucrt:invalid_parameter.obj
 0001:0000852c       _invalid_parameter_noinfo  000000018000952c f   libucrt:invalid_parameter.obj
 0001:0000854c       _invoke_watson             000000018000954c f   libucrt:invalid_parameter.obj
 0001:00008594       __acrt_errno_from_os_error 0000000180009594 f   libucrt:errno.obj
 0001:000085dc       __acrt_errno_map_os_error  00000001800095dc f   libucrt:errno.obj
 0001:0000862c       __doserrno                 000000018000962c f   libucrt:errno.obj
 0001:0000864c       _errno                     000000018000964c f   libucrt:errno.obj
 0001:0000866c       __pctype_func              000000018000966c f   libucrt:ctype.obj
 0001:0000869c       iswctype                   000000018000969c f   libucrt:iswctype.obj
 0001:0000870c       _isctype_l                 000000018000970c f   libucrt:isctype.obj
 0001:0000881c       ??$?RV<lambda_46352004c1216016012b18bd6f87e700>@@AEAV<lambda_3bd07e1a1191394380780325891bf33f>@@V<lambda_334532d3f185bcaa59b5be82d7d22bff>@@@?$__crt_seh_guarded_call@X@@QEAAX$$QEAV<lambda_46352004c1216016012b18bd6f87e700>@@AEAV<lambda_3bd07e1a1191394380780325891bf33f>@@$$QEAV<lambda_334532d3f185bcaa59b5be82d7d22bff>@@@Z 000000018000981c f i libucrt:per_thread_data.obj
 0001:0000887c       ??$?RV<lambda_5e887d1dcbef67a5eb4283622ba103bf>@@AEAV<lambda_4466841279450cc726390878d4a41900>@@V<lambda_341c25c0346d94847f1f3c463c57e077>@@@?$__crt_seh_guarded_call@X@@QEAAX$$QEAV<lambda_5e887d1dcbef67a5eb4283622ba103bf>@@AEAV<lambda_4466841279450cc726390878d4a41900>@@$$QEAV<lambda_341c25c0346d94847f1f3c463c57e077>@@@Z 000000018000987c f i libucrt:per_thread_data.obj
 0001:000088c4       ??$?RV<lambda_72d1df2b273a38828b1ce30cbf4cdab5>@@AEAV<lambda_876a65b173b8412d3a47c70a915b0cf4>@@V<lambda_41932305e351933ebe8f8be3ed8bb5dc>@@@?$__crt_seh_guarded_call@X@@QEAAX$$QEAV<lambda_72d1df2b273a38828b1ce30cbf4cdab5>@@AEAV<lambda_876a65b173b8412d3a47c70a915b0cf4>@@$$QEAV<lambda_41932305e351933ebe8f8be3ed8bb5dc>@@@Z 00000001800098c4 f i libucrt:per_thread_data.obj
 0001:00008904       ??$?RV<lambda_fb3a7dec4e47f37f22dae91bb15c9095>@@AEAV<lambda_698284760c8add0bfb0756c19673e34b>@@V<lambda_dfb8eca1e75fef3034a8fb18dd509707>@@@?$__crt_seh_guarded_call@X@@QEAAX$$QEAV<lambda_fb3a7dec4e47f37f22dae91bb15c9095>@@AEAV<lambda_698284760c8add0bfb0756c19673e34b>@@$$QEAV<lambda_dfb8eca1e75fef3034a8fb18dd509707>@@@Z 0000000180009904 f i libucrt:per_thread_data.obj
 0001:00008b94       __acrt_freeptd             0000000180009b94 f   libucrt:per_thread_data.obj
 0001:00008bd8       __acrt_getptd              0000000180009bd8 f   libucrt:per_thread_data.obj
 0001:00008c6c       __acrt_getptd_head         0000000180009c6c f   libucrt:per_thread_data.obj
 0001:00008ce0       __acrt_getptd_noexit       0000000180009ce0 f   libucrt:per_thread_data.obj
 0001:00008d80       __acrt_initialize_ptd      0000000180009d80 f   libucrt:per_thread_data.obj
 0001:00008dbc       __acrt_uninitialize_ptd    0000000180009dbc f   libucrt:per_thread_data.obj
 0001:00008de0       __acrt_update_locale_info  0000000180009de0 f   libucrt:locale_update.obj
 0001:00008e14       __acrt_update_multibyte_info 0000000180009e14 f   libucrt:locale_update.obj
 0001:00008e48       ??$?RV<lambda_9431c60049192bb82166e0947f95a2e9>@@AEAV<lambda_85fa512c59a4d94d4a89f575eefd92a6>@@V<lambda_487febba6ca58d9ce348204d67e1dba3>@@@?$__crt_seh_guarded_call@X@@QEAAX$$QEAV<lambda_9431c60049192bb82166e0947f95a2e9>@@AEAV<lambda_85fa512c59a4d94d4a89f575eefd92a6>@@$$QEAV<lambda_487febba6ca58d9ce348204d67e1dba3>@@@Z 0000000180009e48 f i libucrt:wsetlocale.obj
 0001:00008eb8       __acrt_set_locale_changed  0000000180009eb8 f   libucrt:wsetlocale.obj
 0001:00008ec4       __acrt_uninitialize_locale 0000000180009ec4 f   libucrt:wsetlocale.obj
 0001:00008ef4       __acrt_initialize_locks    0000000180009ef4 f   libucrt:locks.obj
 0001:00008f3c       __acrt_lock                0000000180009f3c f   libucrt:locks.obj
 0001:00008f58       __acrt_uninitialize_locks  0000000180009f58 f   libucrt:locks.obj
 0001:00008f90       __acrt_unlock              0000000180009f90 f   libucrt:locks.obj
 0001:0000914c       __acrt_FlsAlloc            000000018000a14c f   libucrt:winapi_thunks.obj
 0001:000091a4       __acrt_FlsFree             000000018000a1a4 f   libucrt:winapi_thunks.obj
 0001:000091fc       __acrt_FlsGetValue         000000018000a1fc f   libucrt:winapi_thunks.obj
 0001:00009254       __acrt_FlsSetValue         000000018000a254 f   libucrt:winapi_thunks.obj
 0001:000092bc       __acrt_InitializeCriticalSectionEx 000000018000a2bc f   libucrt:winapi_thunks.obj
 0001:00009334       __acrt_LCMapStringEx       000000018000a334 f   libucrt:winapi_thunks.obj
 0001:00009424       __acrt_LocaleNameToLCID    000000018000a424 f   libucrt:winapi_thunks.obj
 0001:0000948c       __acrt_initialize_winapi_thunks 000000018000a48c f   libucrt:winapi_thunks.obj
 0001:000094c4       __acrt_is_packaged_app     000000018000a4c4 f   libucrt:winapi_thunks.obj
 0001:0000954c       __acrt_uninitialize_winapi_thunks 000000018000a54c f   libucrt:winapi_thunks.obj
 0001:00009a6c       ?expand_if_necessary@?$argument_list@D@?A0x5f5c8891@@AEAAHXZ 000000018000aa6c f i libucrt:argv_wildcards.obj
 0001:00009b34       __acrt_expand_narrow_argv_wildcards 000000018000ab34 f   libucrt:argv_wildcards.obj
 0001:00009b3c       ??$?RV<lambda_efb9b808e93e29b6b799d3875462c817>@@AEAV<lambda_2c5d36f8a66580c563e29092409944b2>@@V<lambda_31e551fca1567ef2425714047646aa90>@@@?$__crt_seh_guarded_call@X@@QEAAX$$QEAV<lambda_efb9b808e93e29b6b799d3875462c817>@@AEAV<lambda_2c5d36f8a66580c563e29092409944b2>@@$$QEAV<lambda_31e551fca1567ef2425714047646aa90>@@@Z 000000018000ab3c f i libucrt:mbctype.obj
 0001:0000a284       __acrt_initialize_multibyte 000000018000b284 f   libucrt:mbctype.obj
 0001:0000a2e4       __acrt_update_thread_multibyte_data 000000018000b2e4 f   libucrt:mbctype.obj
 0001:0000a300       _setmbcp_nolock            000000018000b300 f   libucrt:mbctype.obj
 0001:0000a620       _ismbblead                 000000018000b620 f   libucrt:ismbbyte.obj
 0001:0000a634       __acrt_initialize_command_line 000000018000b634 f   libucrt:argv_data.obj
 0001:0000a65c       __dcrt_get_narrow_environment_from_os 000000018000b65c f   libucrt:get_environment_from_os.obj
 0001:0000a760       _recalloc                  000000018000b760 f   libucrt:recalloc.obj
 0001:0000a768       _recalloc_base             000000018000b768 f   libucrt:recalloc.obj
 0001:0000a800       __acrt_initialize_heap     000000018000b800 f   libucrt:heap_handle.obj
 0001:0000a81c       __acrt_uninitialize_heap   000000018000b81c f   libucrt:heap_handle.obj
 0001:0000aa10       __acrt_initialize_lowio    000000018000ba10 f   libucrt:ioinit.obj
 0001:0000aa4c       __acrt_uninitialize_lowio  000000018000ba4c f   libucrt:ioinit.obj
 0001:0000aa8c       __acrt_execute_initializers 000000018000ba8c f   libucrt:shared_initialization.obj
 0001:0000ab20       __acrt_execute_uninitializers 000000018000bb20 f   libucrt:shared_initialization.obj
 0001:0000ab70       __acrt_initialize_new_handler 000000018000bb70 f   libucrt:new_handler.obj
 0001:0000ab78       _callnewh                  000000018000bb78 f   libucrt:new_handler.obj
 0001:0000abb8       _query_new_handler         000000018000bbb8 f   libucrt:new_handler.obj
 0001:0000abec       ??$?RV<lambda_c36588078e9f5dfd39652860aa6b3aaf>@@AEAV<lambda_ec61778202f4f5fc7e7711acc23c3bca>@@V<lambda_dc9d2797ccde5d239b4a0efae8ebd7db>@@@?$__crt_seh_guarded_call@P6AXH@Z@@QEAAP6AXH@Z$$QEAV<lambda_c36588078e9f5dfd39652860aa6b3aaf>@@AEAV<lambda_ec61778202f4f5fc7e7711acc23c3bca>@@$$QEAV<lambda_dc9d2797ccde5d239b4a0efae8ebd7db>@@@Z 000000018000bbec f i libucrt:signal.obj
 0001:0000ac34       __acrt_get_sigabrt_handler 000000018000bc34 f   libucrt:signal.obj
 0001:0000ac64       __acrt_initialize_signal_handlers 000000018000bc64 f   libucrt:signal.obj
 0001:0000ac84       raise                      000000018000bc84 f   libucrt:signal.obj
 0001:0000af20       __acrt_has_user_matherr    000000018000bf20 f   libucrt:matherr.obj
 0001:0000af40       __acrt_initialize_user_matherr 000000018000bf40 f   libucrt:matherr.obj
 0001:0000af48       __acrt_invoke_user_matherr 000000018000bf48 f   libucrt:matherr.obj
 0001:0000af90       _query_new_mode            000000018000bf90 f   libucrt:new_mode.obj
 0001:0000af98       _mbtowc_l                  000000018000bf98 f   libucrt:mbtowc.obj
 0001:0000b0e0       mbtowc                     000000018000c0e0 f   libucrt:mbtowc.obj
 0001:0000b0e8       _fileno                    000000018000c0e8 f   libucrt:fileno.obj
 0001:0000b110       __acrt_initialize_stdio    000000018000c110 f   libucrt:_file.obj
 0001:0000b230       __acrt_uninitialize_stdio  000000018000c230 f   libucrt:_file.obj
 0001:0000b28c       _lock_file                 000000018000c28c f   libucrt:_file.obj
 0001:0000b298       _unlock_file               000000018000c298 f   libucrt:_file.obj
 0001:0000b2a4       _isleadbyte_l              000000018000c2a4 f i libucrt:_wctype.obj
 0001:0000b2e4       __acrt_GetStringTypeA      000000018000c2e4 f   libucrt:getstringtypea.obj
 0001:0000b498       __acrt_add_locale_ref      000000018000c498 f   libucrt:locale_refcounting.obj
 0001:0000b524       __acrt_free_locale         000000018000c524 f   libucrt:locale_refcounting.obj
 0001:0000b69c       __acrt_locale_add_lc_time_reference 000000018000c69c f   libucrt:locale_refcounting.obj
 0001:0000b6c4       __acrt_locale_free_lc_time_if_unreferenced 000000018000c6c4 f   libucrt:locale_refcounting.obj
 0001:0000b6fc       __acrt_locale_release_lc_time_reference 000000018000c6fc f   libucrt:locale_refcounting.obj
 0001:0000b724       __acrt_release_locale_ref  000000018000c724 f   libucrt:locale_refcounting.obj
 0001:0000b7cc       __acrt_update_thread_locale_data 000000018000c7cc f   libucrt:locale_refcounting.obj
 0001:0000b83c       _updatetlocinfoEx_nolock   000000018000c83c f   libucrt:locale_refcounting.obj
 0001:0000b8a4       __acrt_locale_free_monetary 000000018000c8a4 f   libucrt:initmon.obj
 0001:0000b9b0       __acrt_locale_free_numeric 000000018000c9b0 f   libucrt:initnum.obj
 0001:0000ba74       __acrt_locale_free_time    000000018000ca74 f   libucrt:inittime.obj
 0001:0000bc44       __acrt_DownlevelLocaleNameToLCID 000000018000cc44 f   libucrt:lcidtoname_downlevel.obj
 0001:0000bd50       qsort                      000000018000cd50 f   libucrt:qsort.obj
 0001:0000c084       strncpy_s                  000000018000d084 f   libucrt:strncpy_s.obj
 0001:0000c158       strpbrk                    000000018000d158 f   libucrt:strpbrk.obj
 0001:0000c1f8       _mbsdec                    000000018000d1f8 f   libucrt:mbsdec.obj
 0001:0000c200       _mbsdec_l                  000000018000d200 f   libucrt:mbsdec.obj
 0001:0000c60c       __acrt_LCMapStringA        000000018000d60c f   libucrt:lcmapstringa.obj
 0001:0000c6a4       _msize                     000000018000d6a4 f   libucrt:msize.obj
 0001:0000c6e0       _realloc_base              000000018000d6e0 f   libucrt:realloc_base.obj
 0001:0000c764       __acrt_lowio_create_handle_array 000000018000d764 f   libucrt:osfinfo.obj
 0001:0000c7fc       __acrt_lowio_destroy_handle_array 000000018000d7fc f   libucrt:osfinfo.obj
 0001:0000c84c       __acrt_lowio_ensure_fh_exists 000000018000d84c f   libucrt:osfinfo.obj
 0001:0000c904       __acrt_lowio_lock_fh       000000018000d904 f   libucrt:osfinfo.obj
 0001:0000c928       __acrt_lowio_unlock_fh     000000018000d928 f   libucrt:osfinfo.obj
 0001:0000c94c       _free_osfhnd               000000018000d94c f   libucrt:osfinfo.obj
 0001:0000ca08       _get_osfhandle             000000018000da08 f   libucrt:osfinfo.obj
 0001:0000ca80       _isatty                    000000018000da80 f   libucrt:isatty.obj
 0001:0000cae0       __acrt_stdio_flush_nolock  000000018000dae0 f   libucrt:fflush.obj
 0001:0000cb58       _fflush_nolock             000000018000db58 f   libucrt:fflush.obj
 0001:0000cba4       _flushall                  000000018000dba4 f   libucrt:fflush.obj
 0001:0000cc94       _fcloseall                 000000018000dc94 f   libucrt:closeall.obj
 0001:0000cd48       __acrt_stdio_free_buffer_nolock 000000018000dd48 f   libucrt:_freebuf.obj
 0001:0000cd88       __strncnt                  000000018000dd88 f   libucrt:strncnt.obj
 0001:0000cda0       _query_app_type            000000018000dda0 f   libucrt:report_runtime_error.obj
 0001:0000cda8       ??$?RV<lambda_b521505b218e5242e90febf6bfebc422>@@AEAV<lambda_6978c1fb23f02e42e1d9e99668cc68aa>@@V<lambda_314360699dd331753a4119843814e9a7>@@@?$__crt_seh_guarded_call@H@@QEAAH$$QEAV<lambda_b521505b218e5242e90febf6bfebc422>@@AEAV<lambda_6978c1fb23f02e42e1d9e99668cc68aa>@@$$QEAV<lambda_314360699dd331753a4119843814e9a7>@@@Z 000000018000dda8 f i libucrt:commit.obj
 0001:0000ce34       _commit                    000000018000de34 f   libucrt:commit.obj
 0001:0000d468       _write                     000000018000e468 f   libucrt:write.obj
 0001:0000d554       _write_nolock              000000018000e554 f   libucrt:write.obj
 0001:0000d840       log10                      000000018000e840 f   libucrt:log10.obj
 0001:0000de88       _lseeki64_nolock           000000018000ee88 f   libucrt:lseek.obj
 0001:0000de90       _fclose_nolock             000000018000ee90 f   libucrt:fclose.obj
 0001:0000df14       fclose                     000000018000ef14 f   libucrt:fclose.obj
 0001:0000df80       _putwch_nolock             000000018000ef80 f   libucrt:putwch.obj
 0001:0000e100       _handle_error              000000018000f100 f   libucrt:libm_error.obj
 0001:0000e230       __acrt_initialize_fma3     000000018000f230 f   libucrt:fma3_available.obj
 0001:0000e2a0       _log10_special             000000018000f2a0 f   libucrt:log_special.obj
 0001:0000e358       ??$?RV<lambda_bfedae4ebbf01fab1bb6dcc6a9e276e0>@@AEAV<lambda_2fe9b910cf3cbf4a0ab98a02ba45b3ec>@@V<lambda_237c231691f317818eb88cc1d5d642d6>@@@?$__crt_seh_guarded_call@H@@QEAAH$$QEAV<lambda_bfedae4ebbf01fab1bb6dcc6a9e276e0>@@AEAV<lambda_2fe9b910cf3cbf4a0ab98a02ba45b3ec>@@$$QEAV<lambda_237c231691f317818eb88cc1d5d642d6>@@@Z 000000018000f358 f i libucrt:close.obj
 0001:0000e3cc       _close                     000000018000f3cc f   libucrt:close.obj
 0001:0000e470       _close_nolock              000000018000f470 f   libucrt:close.obj
 0001:0000e52c       ?__acrt_stdio_free_stream@@YAXV__crt_stdio_stream@@@Z 000000018000f52c f   libucrt:stream.obj
 0001:0000e570       __dcrt_lowio_initialize_console_output 000000018000f570 f   libucrt:initcon.obj
 0001:0000e5ac       __dcrt_terminate_console_output 000000018000f5ac f   libucrt:initcon.obj
 0001:0000e5e0       _get_fpsr                  000000018000f5e0 f   libucrt:fpsr.obj
 0001:0000e5f0       _set_fpsr                  000000018000f5f0 f   libucrt:fpsr.obj
 0001:0000e5fa       _fclrf                     000000018000f5fa f   libucrt:fpsr.obj
 0001:0000e60e       _frnd                      000000018000f60e f   libucrt:fpsr.obj
 0001:0000e630       _raise_exc                 000000018000f630 f   libucrt:fpexcept.obj
 0001:0000e658       _raise_exc_ex              000000018000f658 f   libucrt:fpexcept.obj
 0001:0000e960       _set_errno_from_matherr    000000018000f960 f   libucrt:fpexcept.obj
 0001:0000e990       _clrfp                     000000018000f990 f   libucrt:fpctrl.obj
 0001:0000e9b0       _ctrlfp                    000000018000f9b0 f   libucrt:fpctrl.obj
 0001:0000ea2c       _set_statfp                000000018000fa2c f   libucrt:fpctrl.obj
 0001:0000ea4c       _statfp                    000000018000fa4c f   libucrt:fpctrl.obj
 0001:0000ea5e       IsProcessorFeaturePresent  000000018000fa5e f   kernel32:KERNEL32.dll
 0001:0000ea64       RtlUnwindEx                000000018000fa64 f   kernel32:KERNEL32.dll
 0001:0000ea70       _FindPESection             000000018000fa70 f   LIBCMT:pesect.obj
 0001:0000eac0       _IsNonwritableInCurrentImage 000000018000fac0 f   LIBCMT:pesect.obj
 0001:0000eb10       _ValidateImageBase         000000018000fb10 f   LIBCMT:pesect.obj
 0001:0000eb40       __GSHandlerCheck           000000018000fb40 f   LIBCMT:_gshandler_.obj
 0001:0000eb60       __GSHandlerCheckCommon     000000018000fb60 f   LIBCMT:_gshandler_.obj
 0001:0000ebd0       __security_check_cookie    000000018000fbd0 f   LIBCMT:_amdsecgs_.obj
 0001:0000ebf4       __raise_securityfailure    000000018000fbf4 f   LIBCMT:gs_report.obj
 0001:0000ec28       __report_gsfailure         000000018000fc28 f   LIBCMT:gs_report.obj
 0001:0000ecfc       __report_rangecheckfailure 000000018000fcfc f   LIBCMT:gs_report.obj
 0001:0000ed10       __report_securityfailure   000000018000fd10 f   LIBCMT:gs_report.obj
 0001:0000eea0       memcmp                     000000018000fea0 f   libvcruntime:memcmp.obj
 0001:0000ef80       _guard_dispatch_icall_nop  000000018000ff80 f   LIBCMT:_guard_dispatch_.obj
 0002:00000000       __imp_RegQueryValueExW     0000000180011000     advapi32:ADVAPI32.dll
 0002:00000008       __imp_RegOpenKeyExW        0000000180011008     advapi32:ADVAPI32.dll
 0002:00000010       __imp_RegCreateKeyExW      0000000180011010     advapi32:ADVAPI32.dll
 0002:00000018       __imp_RegCloseKey          0000000180011018     advapi32:ADVAPI32.dll
 0002:00000020       __imp_RegSetValueExW       0000000180011020     advapi32:ADVAPI32.dll
 0002:00000028       \177ADVAPI32_NULL_THUNK_DATA 0000000180011028     advapi32:ADVAPI32.dll
 0002:00000030       __imp_SelectObject         0000000180011030     gdi32:GDI32.dll
 0002:00000038       __imp_LineTo               0000000180011038     gdi32:GDI32.dll
 0002:00000040       __imp_DeleteObject         0000000180011040     gdi32:GDI32.dll
 0002:00000048       __imp_CreateSolidBrush     0000000180011048     gdi32:GDI32.dll
 0002:00000050       __imp_CreatePen            0000000180011050     gdi32:GDI32.dll
 0002:00000058       __imp_MoveToEx             0000000180011058     gdi32:GDI32.dll
 0002:00000060       \177GDI32_NULL_THUNK_DATA  0000000180011060     gdi32:GDI32.dll
 0002:00000068       __imp_lstrlenW             0000000180011068     kernel32:KERNEL32.dll
 0002:00000070       __imp_lstrcpynW            0000000180011070     kernel32:KERNEL32.dll
 0002:00000078       __imp_lstrcpyA             0000000180011078     kernel32:KERNEL32.dll
 0002:00000080       __imp_lstrlenA             0000000180011080     kernel32:KERNEL32.dll
 0002:00000088       __imp_MultiByteToWideChar  0000000180011088     kernel32:KERNEL32.dll
 0002:00000090       __imp_HeapCreate           0000000180011090     kernel32:KERNEL32.dll
 0002:00000098       __imp_HeapDestroy          0000000180011098     kernel32:KERNEL32.dll
 0002:000000a0       __imp_HeapAlloc            00000001800110a0     kernel32:KERNEL32.dll
 0002:000000a8       __imp_lstrcpyW             00000001800110a8     kernel32:KERNEL32.dll
 0002:000000b0       __imp_HeapFree             00000001800110b0     kernel32:KERNEL32.dll
 0002:000000b8       __imp_WriteConsoleW        00000001800110b8     kernel32:KERNEL32.dll
 0002:000000c0       __imp_CloseHandle          00000001800110c0     kernel32:KERNEL32.dll
 0002:000000c8       __imp_GetModuleFileNameW   00000001800110c8     kernel32:KERNEL32.dll
 0002:000000d0       __imp_VirtualProtect       00000001800110d0     kernel32:KERNEL32.dll
 0002:000000d8       __imp_lstrcpynA            00000001800110d8     kernel32:KERNEL32.dll
 0002:000000e0       __imp_GetCurrentThreadId   00000001800110e0     kernel32:KERNEL32.dll
 0002:000000e8       __imp_SetLastError         00000001800110e8     kernel32:KERNEL32.dll
 0002:000000f0       __imp_GetLastError         00000001800110f0     kernel32:KERNEL32.dll
 0002:000000f8       __imp_RaiseException       00000001800110f8     kernel32:KERNEL32.dll
 0002:00000100       __imp_HeapReAlloc          0000000180011100     kernel32:KERNEL32.dll
 0002:00000108       __imp_IsDebuggerPresent    0000000180011108     kernel32:KERNEL32.dll
 0002:00000110       __imp_SetFilePointerEx     0000000180011110     kernel32:KERNEL32.dll
 0002:00000118       __imp_GetConsoleMode       0000000180011118     kernel32:KERNEL32.dll
 0002:00000120       __imp_GetConsoleCP         0000000180011120     kernel32:KERNEL32.dll
 0002:00000128       __imp_QueryPerformanceCounter 0000000180011128     kernel32:KERNEL32.dll
 0002:00000130       __imp_GetCurrentProcessId  0000000180011130     kernel32:KERNEL32.dll
 0002:00000138       __imp_GetSystemTimeAsFileTime 0000000180011138     kernel32:KERNEL32.dll
 0002:00000140       __imp_InitializeSListHead  0000000180011140     kernel32:KERNEL32.dll
 0002:00000148       __imp_RtlCaptureContext    0000000180011148     kernel32:KERNEL32.dll
 0002:00000150       __imp_RtlLookupFunctionEntry 0000000180011150     kernel32:KERNEL32.dll
 0002:00000158       __imp_RtlVirtualUnwind     0000000180011158     kernel32:KERNEL32.dll
 0002:00000160       __imp_UnhandledExceptionFilter 0000000180011160     kernel32:KERNEL32.dll
 0002:00000168       __imp_SetUnhandledExceptionFilter 0000000180011168     kernel32:KERNEL32.dll
 0002:00000170       __imp_GetStartupInfoW      0000000180011170     kernel32:KERNEL32.dll
 0002:00000178       __imp_IsProcessorFeaturePresent 0000000180011178     kernel32:KERNEL32.dll
 0002:00000180       __imp_GetModuleHandleW     0000000180011180     kernel32:KERNEL32.dll
 0002:00000188       __imp_RtlUnwindEx          0000000180011188     kernel32:KERNEL32.dll
 0002:00000190       __imp_InterlockedFlushSList 0000000180011190     kernel32:KERNEL32.dll
 0002:00000198       __imp_EnterCriticalSection 0000000180011198     kernel32:KERNEL32.dll
 0002:000001a0       __imp_LeaveCriticalSection 00000001800111a0     kernel32:KERNEL32.dll
 0002:000001a8       __imp_DeleteCriticalSection 00000001800111a8     kernel32:KERNEL32.dll
 0002:000001b0       __imp_InitializeCriticalSectionAndSpinCount 00000001800111b0     kernel32:KERNEL32.dll
 0002:000001b8       __imp_TlsAlloc             00000001800111b8     kernel32:KERNEL32.dll
 0002:000001c0       __imp_TlsGetValue          00000001800111c0     kernel32:KERNEL32.dll
 0002:000001c8       __imp_TlsSetValue          00000001800111c8     kernel32:KERNEL32.dll
 0002:000001d0       __imp_TlsFree              00000001800111d0     kernel32:KERNEL32.dll
 0002:000001d8       __imp_FreeLibrary          00000001800111d8     kernel32:KERNEL32.dll
 0002:000001e0       __imp_GetProcAddress       00000001800111e0     kernel32:KERNEL32.dll
 0002:000001e8       __imp_LoadLibraryExW       00000001800111e8     kernel32:KERNEL32.dll
 0002:000001f0       __imp_GetCurrentProcess    00000001800111f0     kernel32:KERNEL32.dll
 0002:000001f8       __imp_ExitProcess          00000001800111f8     kernel32:KERNEL32.dll
 0002:00000200       __imp_TerminateProcess     0000000180011200     kernel32:KERNEL32.dll
 0002:00000208       __imp_GetModuleHandleExW   0000000180011208     kernel32:KERNEL32.dll
 0002:00000210       __imp_GetModuleFileNameA   0000000180011210     kernel32:KERNEL32.dll
 0002:00000218       __imp_WideCharToMultiByte  0000000180011218     kernel32:KERNEL32.dll
 0002:00000220       __imp_GetStringTypeW       0000000180011220     kernel32:KERNEL32.dll
 0002:00000228       __imp_GetACP               0000000180011228     kernel32:KERNEL32.dll
 0002:00000230       __imp_LCMapStringW         0000000180011230     kernel32:KERNEL32.dll
 0002:00000238       __imp_FindClose            0000000180011238     kernel32:KERNEL32.dll
 0002:00000240       __imp_FindFirstFileExA     0000000180011240     kernel32:KERNEL32.dll
 0002:00000248       __imp_FindNextFileA        0000000180011248     kernel32:KERNEL32.dll
 0002:00000250       __imp_IsValidCodePage      0000000180011250     kernel32:KERNEL32.dll
 0002:00000258       __imp_GetOEMCP             0000000180011258     kernel32:KERNEL32.dll
 0002:00000260       __imp_GetCPInfo            0000000180011260     kernel32:KERNEL32.dll
 0002:00000268       __imp_GetCommandLineA      0000000180011268     kernel32:KERNEL32.dll
 0002:00000270       __imp_GetCommandLineW      0000000180011270     kernel32:KERNEL32.dll
 0002:00000278       __imp_GetEnvironmentStringsW 0000000180011278     kernel32:KERNEL32.dll
 0002:00000280       __imp_FreeEnvironmentStringsW 0000000180011280     kernel32:KERNEL32.dll
 0002:00000288       __imp_GetProcessHeap       0000000180011288     kernel32:KERNEL32.dll
 0002:00000290       __imp_GetStdHandle         0000000180011290     kernel32:KERNEL32.dll
 0002:00000298       __imp_GetFileType          0000000180011298     kernel32:KERNEL32.dll
 0002:000002a0       __imp_HeapSize             00000001800112a0     kernel32:KERNEL32.dll
 0002:000002a8       __imp_SetStdHandle         00000001800112a8     kernel32:KERNEL32.dll
 0002:000002b0       __imp_WriteFile            00000001800112b0     kernel32:KERNEL32.dll
 0002:000002b8       __imp_FlushFileBuffers     00000001800112b8     kernel32:KERNEL32.dll
 0002:000002c0       __imp_CreateFileW          00000001800112c0     kernel32:KERNEL32.dll
 0002:000002c8       \177KERNEL32_NULL_THUNK_DATA 00000001800112c8     kernel32:KERNEL32.dll
 0002:000002d0       __imp_wsprintfA            00000001800112d0     user32:USER32.dll
 0002:000002d8       __imp_wsprintfW            00000001800112d8     user32:USER32.dll
 0002:000002e0       __imp_FillRect             00000001800112e0     user32:USER32.dll
 0002:000002e8       \177USER32_NULL_THUNK_DATA 00000001800112e8     user32:USER32.dll
 0002:000002f0       __imp_GetFileVersionInfoW  00000001800112f0     version:VERSION.dll
 0002:000002f8       __imp_VerQueryValueW       00000001800112f8     version:VERSION.dll
 0002:00000300       __imp_GetFileVersionInfoSizeW 0000000180011300     version:VERSION.dll
 0002:00000308       \177VERSION_NULL_THUNK_DATA 0000000180011308     version:VERSION.dll
 0002:00000310       __guard_check_icall_fptr   0000000180011310     LIBCMT:guard_support.obj
 0002:00000318       __guard_dispatch_icall_fptr 0000000180011318     LIBCMT:guard_support.obj
 0002:00000320       __xc_a                     0000000180011320     LIBCMT:initializers.obj
 0002:00000328       __xc_z                     0000000180011328     LIBCMT:initializers.obj
 0002:00000330       __xi_a                     0000000180011330     LIBCMT:initializers.obj
 0002:00000338       __acrt_multibyte_initializer 0000000180011338     libucrt:multibyte_initializer.obj
 0002:00000340       __acrt_stdio_initializer   0000000180011340     libucrt:stdio_initializer.obj
 0002:00000348       __acrt_tran_fma3_initializer 0000000180011348     libucrt:fma3_initializer.obj
 0002:00000350       __xi_z                     0000000180011350     LIBCMT:initializers.obj
 0002:00000358       __xp_a                     0000000180011358     LIBCMT:initializers.obj
 0002:00000360       __acrt_locale_terminator   0000000180011360     libucrt:locale_initializer.obj
 0002:00000368       __dcrt_console_output_terminator 0000000180011368     libucrt:console_output_initializer.obj
 0002:00000370       __acrt_stdio_terminator    0000000180011370     libucrt:stdio_initializer.obj
 0002:00000378       __xp_z                     0000000180011378     LIBCMT:initializers.obj
 0002:00000380       __xt_a                     0000000180011380     LIBCMT:initializers.obj
 0002:00000388       __xt_z                     0000000180011388     LIBCMT:initializers.obj
 0002:00000390       ??_C@_1BM@GCLEPEKO@?$AAP?$AAl?$AAu?$AAg?$AAi?$AAn?$AAE?$AAn?$AAa?$AAb?$AAl?$AAe?$AAd?$AA?$AA@ 0000000180011390     ConEmuLn.obj
 0002:000003b0       ??_C@_1BG@GKMEIIHO@?$AAL?$AAi?$AAn?$AAe?$AAs?$AAP?$AAa?$AAn?$AAe?$AAl?$AA?$AA@ 00000001800113b0     ConEmuLn.obj
 0002:000003c8       ??_C@_1BG@FMPDIDHG@?$AAL?$AAi?$AAn?$AAe?$AAs?$AAC?$AAo?$AAl?$AAo?$AAr?$AA?$AA@ 00000001800113c8     ConEmuLn.obj
 0002:000003e0       ??_C@_1BI@DNACCAMK@?$AAL?$AAi?$AAn?$AAe?$AAs?$AAE?$AAd?$AAi?$AAt?$AAo?$AAr?$AA?$AA@ 00000001800113e0     ConEmuLn.obj
 0002:000003f8       ??_C@_1CC@LODMIFLF@?$AAL?$AAi?$AAn?$AAe?$AAs?$AAE?$AAd?$AAi?$AAt?$AAo?$AAr?$AAC?$AAo?$AAl?$AAo?$AAr?$AA?$AA@ 00000001800113f8     ConEmuLn.obj
 0002:00000420       ??_C@_1BI@IMFGPMJI@?$AAL?$AAi?$AAn?$AAe?$AAs?$AAV?$AAi?$AAe?$AAw?$AAe?$AAr?$AA?$AA@ 0000000180011420     ConEmuLn.obj
 0002:00000438       ??_C@_1CC@KGIANIMF@?$AAL?$AAi?$AAn?$AAe?$AAs?$AAV?$AAi?$AAe?$AAw?$AAe?$AAr?$AAC?$AAo?$AAl?$AAo?$AAr?$AA?$AA@ 0000000180011438     ConEmuLn.obj
 0002:00000460       ??_C@_1BI@PPOFOFEE@?$AAH?$AAi?$AAl?$AAi?$AAg?$AAh?$AAt?$AAT?$AAy?$AAp?$AAe?$AA?$AA@ 0000000180011460     ConEmuLn.obj
 0002:00000478       ??_C@_1BO@FGCOGFB@?$AAH?$AAi?$AAl?$AAi?$AAg?$AAh?$AAt?$AAP?$AAl?$AAu?$AAg?$AAi?$AAn?$AAs?$AA?$AA@ 0000000180011478     ConEmuLn.obj
 0002:00000498       ??_C@_1CA@GLKFLGCI@?$AAH?$AAi?$AAl?$AAi?$AAg?$AAh?$AAt?$AAP?$AAl?$AAu?$AAg?$AAB?$AAa?$AAc?$AAk?$AA?$AA@ 0000000180011498     ConEmuLn.obj
 0002:000004b8       ??_C@_08BCACMCCB@ExitFARW?$AA@ 00000001800114b8     ConEmuLn.obj
 0002:000004c8       ??_C@_0L@DJCGGOCO@ConfigureW?$AA@ 00000001800114c8     ConEmuLn.obj
 0002:000004d4       ??_C@_11LOCGONAA@?$AA?$AA@ 00000001800114d4     ConEmuLn.obj
 0002:000004d8       ??_C@_13FPGAJAPJ@?$AA?2?$AA?$AA@ 00000001800114d8     ConEmuLn.obj
 0002:000004e0       ??_C@_1FG@DPPGENBC@?$AAL?$AAo?$AAa?$AAd?$AAA?$AAp?$AAp?$AAV?$AAe?$AAr?$AAs?$AAi?$AAo?$AAn?$AA?4?$AAV?$AAe?$AAr?$AAQ?$AAu?$AAe?$AAr?$AAy?$AAV?$AAa?$AAl?$AAu?$AAe?$AA?$CI?$AA?$CC?$AA?2?$AA?$CC@ 00000001800114e0     ConEmuLn.obj
 0002:00000540       ??_C@_1FK@HILEEFML@?$AAL?$AAo?$AAa?$AAd?$AAA?$AAp?$AAp?$AAV?$AAe?$AAr?$AAs?$AAi?$AAo?$AAn?$AA?4?$AAG?$AAe?$AAt?$AAF?$AAi?$AAl?$AAe?$AAV?$AAe?$AAr?$AAs?$AAi?$AAo?$AAn?$AAI?$AAn?$AAf@ 0000000180011540     ConEmuLn.obj
 0002:000005a0       ??_C@_1GC@BINFLBDC@?$AAL?$AAo?$AAa?$AAd?$AAA?$AAp?$AAp?$AAV?$AAe?$AAr?$AAs?$AAi?$AAo?$AAn?$AA?5?$AAf?$AAa?$AAi?$AAl?$AAe?$AAd?$AA?$CB?$AA?5?$AAC?$AAa?$AAn?$AA?8?$AAt?$AA?5?$AAa?$AAl?$AAl@ 00000001800115a0     ConEmuLn.obj
 0002:00000610       ??_C@_1GC@CPPHDKJK@?$AAL?$AAo?$AAa?$AAd?$AAA?$AAp?$AAp?$AAV?$AAe?$AAr?$AAs?$AAi?$AAo?$AAn?$AA?4?$AAG?$AAe?$AAt?$AAF?$AAi?$AAl?$AAe?$AAV?$AAe?$AAr?$AAs?$AAi?$AAo?$AAn?$AAI?$AAn?$AAf@ 0000000180011610     ConEmuLn.obj
 0002:00000680       ??_C@_1EG@IINOBDEG@?$AAI?$AAn?$AAv?$AAa?$AAl?$AAi?$AAd?$AA?5?$AAa?$AAs?$AAM?$AAo?$AAd?$AAu?$AAl?$AAe?$AAP?$AAa?$AAt?$AAh?$AA?5?$AAw?$AAa?$AAs?$AA?5?$AAs?$AAp?$AAe?$AAc?$AAi?$AAf?$AAi@ 0000000180011680     ConEmuLn.obj
 0002:000006c8       ??_C@_1CA@GGFPMHLH@?$AA?6?$AAE?$AAr?$AAr?$AAC?$AAo?$AAd?$AAe?$AA?$DN?$AA0?$AAx?$AA?$CF?$AA0?$AA8?$AAX?$AA?$AA@ 00000001800116c8     ConEmuLn.obj
 0002:000006f0       ??_C@_1FG@LNADFPCE@?$AAL?$AAo?$AAa?$AAd?$AAF?$AAa?$AAr?$AAV?$AAe?$AAr?$AAs?$AAi?$AAo?$AAn?$AA?4?$AAG?$AAe?$AAt?$AAM?$AAo?$AAd?$AAu?$AAl?$AAe?$AAF?$AAi?$AAl?$AAe?$AAN?$AAa?$AAm?$AAe@ 00000001800116f0     ConEmuLn.obj
 0002:00000748       ??_C@_1BE@MMJMCNIO@?$AAC?$AAo?$AAn?$AAE?$AAm?$AAu?$AAL?$AAn?$AA?2?$AA?$AA@ 0000000180011748     ConEmuLn995.obj
 0002:00000760       ??_C@_1BC@KLDFICIN@?$AA0?$AAx?$AAX?$AAX?$AAX?$AAX?$AAX?$AAX?$AA?$AA@ 0000000180011760     ConEmuLn995.obj
 0002:00000778       ??_C@_19OMFGMPJN@?$AA?$CF?$AA0?$AA6?$AAX?$AA?$AA@ 0000000180011778     ConEmuLn995.obj
 0002:00000790       __xmm@0000000000000000000000000000000e 0000000180011790     ConEmuLn995.obj
 0002:000007a0       __xmm@0000000000000000000000000000000f 00000001800117a0     ConEmuLn995.obj
 0002:000007b0       __xmm@00000000000000000000002400000007 00000001800117b0     ConEmuLn995.obj
 0002:000007c0       __xmm@00000000000000000000002400000008 00000001800117c0     ConEmuLn995.obj
 0002:000007d0       __xmm@00000000000000000000002400000009 00000001800117d0     ConEmuLn995.obj
 0002:000007e0       __xmm@00000000000000050000000500000009 00000001800117e0     ConEmuLn995.obj
 0002:000007f0       __xmm@00000000000000070000000500000008 00000001800117f0     ConEmuLn995.obj
 0002:00000800       __xmm@00000000000000080000000500000008 0000000180011800     ConEmuLn995.obj
 0002:00000810       __xmm@00000000000000090000000500000008 0000000180011810     ConEmuLn995.obj
 0002:00000820       __xmm@000000000000000b0000000500000008 0000000180011820     ConEmuLn995.obj
 0002:00000830       __xmm@000000000000000f0000000000000007 0000000180011830     ConEmuLn995.obj
 0002:00000840       __xmm@00000001000000000000000000000003 0000000180011840     ConEmuLn995.obj
 0002:00000850       __xmm@000000240000000c0000001d00000006 0000000180011850     ConEmuLn995.obj
 0002:00000860       __xmm@00000026000000010000000300000003 0000000180011860     ConEmuLn995.obj
 0002:00000870       __xmm@00000000000000030000000500000008 0000000180011870     ConEmuLn1900.obj
 0002:00000880       __xmm@000000000000000c0000000500000000 0000000180011880     ConEmuLn1900.obj
 0002:00000890       __xmm@000000000000000e0000000000000000 0000000180011890     ConEmuLn1900.obj
 0002:000008a0       __xmm@00000024000000070000001d00000006 00000001800118a0     ConEmuLn1900.obj
 0002:000008b0       __xmm@00000024000000080000001d00000006 00000001800118b0     ConEmuLn1900.obj
 0002:000008c0       __xmm@00000024000000090000001d00000006 00000001800118c0     ConEmuLn1900.obj
 0002:000008d0       ??_C@_1CE@PCHJHFGJ@?$AAC?$AAo?$AAn?$AAE?$AAm?$AAu?$AA?5?$AAU?$AAn?$AAd?$AAe?$AAr?$AAl?$AAi?$AAn?$AAe?$AAs?$AA?$AA@ 00000001800118d0     ConEmuLn2800.obj
 0002:00000900       ??_C@_1GC@KMIACAL@?$AAP?$AAa?$AAi?$AAn?$AAt?$AA?5?$AAu?$AAn?$AAd?$AAe?$AAr?$AAl?$AAi?$AAn?$AAe?$AAd?$AA?5?$AAb?$AAa?$AAc?$AAk?$AAg?$AAr?$AAo?$AAu?$AAn?$AAd?$AA?5?$AAi?$AAn?$AA?5?$AAt@ 0000000180011900     ConEmuLn2800.obj
 0002:00000968       ??_C@_1DE@DJEAMLPH@?$AAC?$AAo?$AAn?$AAE?$AAm?$AAu?$AA?4?$AAM?$AAa?$AAx?$AAi?$AAm?$AAu?$AAs?$AA5?$AA?$EA?$AAg?$AAm?$AAa?$AAi?$AAl?$AA?4?$AAc?$AAo?$AAm?$AA?$AA@ 0000000180011968     ConEmuLn2800.obj
 0002:000009a0       __xmm@00000000000000000000000000000003 00000001800119a0     ConEmuLn2800.obj
 0002:000009b0       __xmm@00000000000000000000000000000005 00000001800119b0     ConEmuLn2800.obj
 0002:000009c0       __xmm@00000000000000000000000000000007 00000001800119c0     ConEmuLn2800.obj
 0002:000009d0       __xmm@00000000000000000000000000000008 00000001800119d0     ConEmuLn2800.obj
 0002:000009e0       __xmm@00000000000000000000000000000009 00000001800119e0     ConEmuLn2800.obj
 0002:000009f0       __xmm@0000000000000000000000000000000b 00000001800119f0     ConEmuLn2800.obj
 0002:00000a00       __xmm@0000000000000000000000000000000c 0000000180011a00     ConEmuLn2800.obj
 0002:00000a10       __xmm@00000000000000240000000000000007 0000000180011a10     ConEmuLn2800.obj
 0002:00000a20       __xmm@00000000000000240000000000000008 0000000180011a20     ConEmuLn2800.obj
 0002:00000a30       __xmm@00000000000000240000000000000009 0000000180011a30     ConEmuLn2800.obj
 0002:00000a40       __xmm@0000000000000024000000000000000c 0000000180011a40     ConEmuLn2800.obj
 0002:00000a50       __xmm@00000000000000260000000000000001 0000000180011a50     ConEmuLn2800.obj
 0002:00000a60       ??_C@_08KOICIHPP@0xXXXXXX?$AA@ 0000000180011a60     ConEmuLnA.obj
 0002:00000a6c       ??_C@_04JCFDBOEJ@?$CF06X?$AA@ 0000000180011a6c     ConEmuLnA.obj
 0002:00000a78       _pDefaultRawDllMain        0000000180011a78     LIBCMT:dll_dllmain.obj
 0002:00000a78       _pRawDllMain               0000000180011a78     LIBCMT:dll_dllmain.obj
 0002:00000aa0       ??_C@_1BC@DNHGCMLG@?$AAa?$AAd?$AAv?$AAa?$AAp?$AAi?$AA3?$AA2?$AA?$AA@ 0000000180011aa0     libvcruntime:winapi_downlevel.obj
 0002:00000ab8       ??_C@_1DM@KHCHBNEB@?$AAa?$AAp?$AAi?$AA?9?$AAm?$AAs?$AA?9?$AAw?$AAi?$AAn?$AA?9?$AAc?$AAo?$AAr?$AAe?$AA?9?$AAf?$AAi?$AAb?$AAe?$AAr?$AAs?$AA?9?$AAl?$AA1?$AA?9?$AA1?$AA?9?$AA1?$AA?$AA@ 0000000180011ab8     libvcruntime:winapi_downlevel.obj
 0002:00000af8       ??_C@_1DK@LPPGFMPP@?$AAa?$AAp?$AAi?$AA?9?$AAm?$AAs?$AA?9?$AAw?$AAi?$AAn?$AA?9?$AAc?$AAo?$AAr?$AAe?$AA?9?$AAs?$AAy?$AAn?$AAc?$AAh?$AA?9?$AAl?$AA1?$AA?9?$AA2?$AA?9?$AA0?$AA?$AA@ 0000000180011af8     libvcruntime:winapi_downlevel.obj
 0002:00000b38       ??_C@_1BC@GDMECMAK@?$AAk?$AAe?$AAr?$AAn?$AAe?$AAl?$AA3?$AA2?$AA?$AA@ 0000000180011b38     libvcruntime:winapi_downlevel.obj
 0002:00000b58       ??_C@_08KNHFBNJ@FlsAlloc?$AA@ 0000000180011b58     libvcruntime:winapi_downlevel.obj
 0002:00000b70       ??_C@_07PEJMOBNF@FlsFree?$AA@ 0000000180011b70     libvcruntime:winapi_downlevel.obj
 0002:00000b80       ??_C@_0M@GDNOONDI@FlsGetValue?$AA@ 0000000180011b80     libvcruntime:winapi_downlevel.obj
 0002:00000b98       ??_C@_0M@JCPCPOEF@FlsSetValue?$AA@ 0000000180011b98     libvcruntime:winapi_downlevel.obj
 0002:00000bb0       ??_C@_0BM@HCFOFFN@InitializeCriticalSectionEx?$AA@ 0000000180011bb0     libvcruntime:winapi_downlevel.obj
 0002:00000ef0       ??_C@_08EHJDFFNH@__based?$CI?$AA@ 0000000180011ef0     libvcruntime:undname.obj
 0002:00000f00       ??_C@_07KOLFKCDI@__cdecl?$AA@ 0000000180011f00     libvcruntime:undname.obj
 0002:00000f08       ??_C@_08GHMPAG@__pascal?$AA@ 0000000180011f08     libvcruntime:undname.obj
 0002:00000f18       ??_C@_09IFJBGAPI@__stdcall?$AA@ 0000000180011f18     libvcruntime:undname.obj
 0002:00000f28       ??_C@_0L@NPHFGOKO@__thiscall?$AA@ 0000000180011f28     libvcruntime:undname.obj
 0002:00000f38       ??_C@_0L@JMKHOMEK@__fastcall?$AA@ 0000000180011f38     libvcruntime:undname.obj
 0002:00000f48       ??_C@_0N@BCKKPABJ@__vectorcall?$AA@ 0000000180011f48     libvcruntime:undname.obj
 0002:00000f58       ??_C@_09HIJEGCPM@__clrcall?$AA@ 0000000180011f58     libvcruntime:undname.obj
 0002:00000f64       ??_C@_06GHPCKEAG@__eabi?$AA@ 0000000180011f64     libvcruntime:undname.obj
 0002:00000f70       ??_C@_07JOMMBBKO@__ptr64?$AA@ 0000000180011f70     libvcruntime:undname.obj
 0002:00000f78       ??_C@_0L@PILCLIHE@__restrict?$AA@ 0000000180011f78     libvcruntime:undname.obj
 0002:00000f88       ??_C@_0M@GFIIJFMG@__unaligned?$AA@ 0000000180011f88     libvcruntime:undname.obj
 0002:00000f98       ??_C@_09DHDLOLLB@restrict?$CI?$AA@ 0000000180011f98     libvcruntime:undname.obj
 0002:00000fa2       ??_C@_00CNPNBAHC@?$AA@     0000000180011fa2     libvcruntime:undname.obj
 0002:00000fa4       ??_C@_04NIHEBCM@?5new?$AA@ 0000000180011fa4     libvcruntime:undname.obj
 0002:00000fb0       ??_C@_07FPCDHGMM@?5delete?$AA@ 0000000180011fb0     libvcruntime:undname.obj
 0002:00000fb8       ??_C@_01NEMOKFLO@?$DN?$AA@ 0000000180011fb8     libvcruntime:undname.obj
 0002:00000fbc       ??_C@_02GPIOPFAK@?$DO?$DO?$AA@ 0000000180011fbc     libvcruntime:undname.obj
 0002:00000fc0       ??_C@_02FODMEDOG@?$DM?$DM?$AA@ 0000000180011fc0     libvcruntime:undname.obj
 0002:00000fc4       ??_C@_01DCLJPIOD@?$CB?$AA@ 0000000180011fc4     libvcruntime:undname.obj
 0002:00000fc8       ??_C@_02EGOFBIJA@?$DN?$DN?$AA@ 0000000180011fc8     libvcruntime:undname.obj
 0002:00000fcc       ??_C@_02FDNJECIE@?$CB?$DN?$AA@ 0000000180011fcc     libvcruntime:undname.obj
 0002:00000fd0       ??_C@_02GPECMEKF@?$FL?$FN?$AA@ 0000000180011fd0     libvcruntime:undname.obj
 0002:00000fd8       ??_C@_08LHJFAFGD@operator?$AA@ 0000000180011fd8     libvcruntime:undname.obj
 0002:00000fe4       ??_C@_02HBOOOICD@?9?$DO?$AA@ 0000000180011fe4     libvcruntime:undname.obj
 0002:00000fe8       ??_C@_01NBENCBCI@?$CK?$AA@ 0000000180011fe8     libvcruntime:undname.obj
 0002:00000fec       ??_C@_02ECNGHCIF@?$CL?$CL?$AA@ 0000000180011fec     libvcruntime:undname.obj
 0002:00000ff0       ??_C@_02BAABKJLB@?9?9?$AA@ 0000000180011ff0     libvcruntime:undname.obj
 0002:00000ff4       ??_C@_01JOAMLHOP@?9?$AA@   0000000180011ff4     libvcruntime:undname.obj
 0002:00000ff8       ??_C@_01MIFGBAGJ@?$CL?$AA@ 0000000180011ff8     libvcruntime:undname.obj
 0002:00000ffc       ??_C@_01HNPIGOCE@?$CG?$AA@ 0000000180011ffc     libvcruntime:undname.obj
 0002:00001000       ??_C@_03MNHNFDLC@?9?$DO?$CK?$AA@ 0000000180012000     libvcruntime:undname.obj
 0002:00001004       ??_C@_01KMDKNFGN@?1?$AA@   0000000180012004     libvcruntime:undname.obj
 0002:00001008       ??_C@_01FGNFDNOH@?$CF?$AA@ 0000000180012008     libvcruntime:undname.obj
 0002:0000100c       ??_C@_01MNNFJEPP@?$DM?$AA@ 000000018001200c     libvcruntime:undname.obj
 0002:00001010       ??_C@_02EHCHHCKH@?$DM?$DN?$AA@ 0000000180012010     libvcruntime:undname.obj
 0002:00001014       ??_C@_01PPODPGHN@?$DO?$AA@ 0000000180012014     libvcruntime:undname.obj
 0002:00001018       ??_C@_02EEKDKGMJ@?$DO?$DN?$AA@ 0000000180012018     libvcruntime:undname.obj
 0002:0000101c       ??_C@_01IHBHIGKO@?0?$AA@   000000018001201c     libvcruntime:undname.obj
 0002:00001020       ??_C@_02HCKGKOFO@?$CI?$CJ?$AA@ 0000000180012020     libvcruntime:undname.obj
 0002:00001024       ??_C@_01PJKLJHI@?$HO?$AA@  0000000180012024     libvcruntime:undname.obj
 0002:00001028       ??_C@_01JKBOJNNK@?$FO?$AA@ 0000000180012028     libvcruntime:undname.obj
 0002:0000102c       ??_C@_01DNKMNLPK@?$HM?$AA@ 000000018001202c     libvcruntime:undname.obj
 0002:00001030       ??_C@_02PPKAJPJL@?$CG?$CG?$AA@ 0000000180012030     libvcruntime:undname.obj
 0002:00001034       ??_C@_02NONPIBCD@?$HM?$HM?$AA@ 0000000180012034     libvcruntime:undname.obj
 0002:00001038       ??_C@_02FPIMKNGF@?$CK?$DN?$AA@ 0000000180012038     libvcruntime:undname.obj
 0002:0000103c       ??_C@_02FOEOMHFC@?$CL?$DN?$AA@ 000000018001203c     libvcruntime:undname.obj
 0002:00001040       ??_C@_02FKMDLLOA@?9?$DN?$AA@ 0000000180012040     libvcruntime:undname.obj
 0002:00001044       ??_C@_02FJEHGPIO@?1?$DN?$AA@ 0000000180012044     libvcruntime:undname.obj
 0002:00001048       ??_C@_02FENAOKFI@?$CF?$DN?$AA@ 0000000180012048     libvcruntime:undname.obj
 0002:0000104c       ??_C@_03IKFCCPFF@?$DO?$DO?$DN?$AA@ 000000018001204c     libvcruntime:undname.obj
 0002:00001050       ??_C@_03CDNPDDLA@?$DM?$DM?$DN?$AA@ 0000000180012050     libvcruntime:undname.obj
 0002:00001054       ??_C@_02FGJGFEAB@?$CG?$DN?$AA@ 0000000180012054     libvcruntime:undname.obj
 0002:00001058       ??_C@_02DHLNPPGH@?$HM?$DN?$AA@ 0000000180012058     libvcruntime:undname.obj
 0002:0000105c       ??_C@_02MHEGNOJ@?$FO?$DN?$AA@ 000000018001205c     libvcruntime:undname.obj
 0002:00001060       ??_C@_09IFPLHPGF@?$GAvftable?8?$AA@ 0000000180012060     libvcruntime:undname.obj
 0002:00001070       ??_C@_09BLBHBJP@?$GAvbtable?8?$AA@ 0000000180012070     libvcruntime:undname.obj
 0002:00001080       ??_C@_07FEEIOKP@?$GAvcall?8?$AA@ 0000000180012080     libvcruntime:undname.obj
 0002:00001088       ??_C@_08LLFFHHDJ@?$GAtypeof?8?$AA@ 0000000180012088     libvcruntime:undname.obj
 0002:00001098       ??_C@_0BF@KDPPACIK@?$GAlocal?5static?5guard?8?$AA@ 0000000180012098     libvcruntime:undname.obj
 0002:000010b0       ??_C@_08OBABFOLI@?$GAstring?8?$AA@ 00000001800120b0     libvcruntime:undname.obj
 0002:000010c0       ??_C@_0BD@JDLKDPAB@?$GAvbase?5destructor?8?$AA@ 00000001800120c0     libvcruntime:undname.obj
 0002:000010d8       ??_C@_0BN@DEGPLNFK@?$GAvector?5deleting?5destructor?8?$AA@ 00000001800120d8     libvcruntime:undname.obj
 0002:000010f8       ??_C@_0BO@OBMKPJIG@?$GAdefault?5constructor?5closure?8?$AA@ 00000001800120f8     libvcruntime:undname.obj
 0002:00001118       ??_C@_0BN@IMDCHIKM@?$GAscalar?5deleting?5destructor?8?$AA@ 0000000180012118     libvcruntime:undname.obj
 0002:00001138       ??_C@_0BO@PFGOCPJJ@?$GAvector?5constructor?5iterator?8?$AA@ 0000000180012138     libvcruntime:undname.obj
 0002:00001158       ??_C@_0BN@LFPFMEDL@?$GAvector?5destructor?5iterator?8?$AA@ 0000000180012158     libvcruntime:undname.obj
 0002:00001178       ??_C@_0CE@IKBNEHA@?$GAvector?5vbase?5constructor?5iterat@ 0000000180012178     libvcruntime:undname.obj
 0002:000011a0       ??_C@_0BL@NILFHHPC@?$GAvirtual?5displacement?5map?8?$AA@ 00000001800121a0     libvcruntime:undname.obj
 0002:000011c0       ??_C@_0CB@JONCMFFK@?$GAeh?5vector?5constructor?5iterator?8@ 00000001800121c0     libvcruntime:undname.obj
 0002:000011e8       ??_C@_0CA@GCEOPDGL@?$GAeh?5vector?5destructor?5iterator?8?$AA@ 00000001800121e8     libvcruntime:undname.obj
 0002:00001208       ??_C@_0CH@OOJPLCPH@?$GAeh?5vector?5vbase?5constructor?5ite@ 0000000180012208     libvcruntime:undname.obj
 0002:00001230       ??_C@_0BL@LLKPOHJI@?$GAcopy?5constructor?5closure?8?$AA@ 0000000180012230     libvcruntime:undname.obj
 0002:00001250       ??_C@_0BA@KBCDOMBN@?$GAudt?5returning?8?$AA@ 0000000180012250     libvcruntime:undname.obj
 0002:00001260       ??_C@_03KLGMFNMG@?$GAEH?$AA@ 0000000180012260     libvcruntime:undname.obj
 0002:00001264       ??_C@_05KHLCHHI@?$GARTTI?$AA@ 0000000180012264     libvcruntime:undname.obj
 0002:00001270       ??_C@_0BA@KKLDJDLB@?$GAlocal?5vftable?8?$AA@ 0000000180012270     libvcruntime:undname.obj
 0002:00001280       ??_C@_0CE@IIHCMGGL@?$GAlocal?5vftable?5constructor?5closu@ 0000000180012280     libvcruntime:undname.obj
 0002:000012a4       ??_C@_06FHBGPFGH@?5new?$FL?$FN?$AA@ 00000001800122a4     libvcruntime:undname.obj
 0002:000012b0       ??_C@_09LBNFPBCA@?5delete?$FL?$FN?$AA@ 00000001800122b0     libvcruntime:undname.obj
 0002:000012c0       ??_C@_0P@HJKNJFNN@?$GAomni?5callsig?8?$AA@ 00000001800122c0     libvcruntime:undname.obj
 0002:000012d0       ??_C@_0BL@CNOONJFP@?$GAplacement?5delete?5closure?8?$AA@ 00000001800122d0     libvcruntime:undname.obj
 0002:000012f0       ??_C@_0BN@CKNJLHMB@?$GAplacement?5delete?$FL?$FN?5closure?8?$AA@ 00000001800122f0     libvcruntime:undname.obj
 0002:00001310       ??_C@_0CG@CFDHKGGD@?$GAmanaged?5vector?5constructor?5iter@ 0000000180012310     libvcruntime:undname.obj
 0002:00001338       ??_C@_0CF@IMGKMJNO@?$GAmanaged?5vector?5destructor?5itera@ 0000000180012338     libvcruntime:undname.obj
 0002:00001360       ??_C@_0CG@HLDDJMAG@?$GAeh?5vector?5copy?5constructor?5iter@ 0000000180012360     libvcruntime:undname.obj
 0002:00001388       ??_C@_0CM@FCBBDIGB@?$GAeh?5vector?5vbase?5copy?5constructo@ 0000000180012388     libvcruntime:undname.obj
 0002:000013b8       ??_C@_0BL@CLIPGLGB@?$GAdynamic?5initializer?5for?5?8?$AA@ 00000001800123b8     libvcruntime:undname.obj
 0002:000013d8       ??_C@_0CB@PDBIFEP@?$GAdynamic?5atexit?5destructor?5for?5?8@ 00000001800123d8     libvcruntime:undname.obj
 0002:00001400       ??_C@_0CD@CGAJBKEJ@?$GAvector?5copy?5constructor?5iterato@ 0000000180012400     libvcruntime:undname.obj
 0002:00001428       ??_C@_0CJ@GJELGAMM@?$GAvector?5vbase?5copy?5constructor?5i@ 0000000180012428     libvcruntime:undname.obj
 0002:00001458       ??_C@_0CL@FGIJHLCE@?$GAmanaged?5vector?5copy?5constructor@ 0000000180012458     libvcruntime:undname.obj
 0002:00001488       ??_C@_0BM@PMGGMLDN@?$GAlocal?5static?5thread?5guard?8?$AA@ 0000000180012488     libvcruntime:undname.obj
 0002:000014a8       ??_C@_0N@BDNMDMOL@operator?5?$CC?$CC?5?$AA@ 00000001800124a8     libvcruntime:undname.obj
 0002:000014b8       ??_C@_0BC@DAFEJGAK@?5Type?5Descriptor?8?$AA@ 00000001800124b8     libvcruntime:undname.obj
 0002:000014d0       ??_C@_0BM@LDKODKLH@?5Base?5Class?5Descriptor?5at?5?$CI?$AA@ 00000001800124d0     libvcruntime:undname.obj
 0002:000014f0       ??_C@_0BD@LGICGFMM@?5Base?5Class?5Array?8?$AA@ 00000001800124f0     libvcruntime:undname.obj
 0002:00001508       ??_C@_0BN@MECKDCOJ@?5Class?5Hierarchy?5Descriptor?8?$AA@ 0000000180012508     libvcruntime:undname.obj
 0002:00001528       ??_C@_0BK@CFCOFLF@?5Complete?5Object?5Locator?8?$AA@ 0000000180012528     libvcruntime:undname.obj
 0002:00001550       __acrt_exception_action_table 0000000180012550     libucrt:exception_filter.obj
 0002:00001610       __acrt_signal_action_table_count 0000000180012610     libucrt:exception_filter.obj
 0002:00001618       __acrt_signal_action_first_fpe_index 0000000180012618     libucrt:exception_filter.obj
 0002:00001620       __acrt_signal_action_fpe_count 0000000180012620     libucrt:exception_filter.obj
 0002:00001628       ??_C@_1BI@BGOHAHKC@?$AAm?$AAs?$AAc?$AAo?$AAr?$AAe?$AAe?$AA?4?$AAd?$AAl?$AAl?$AA?$AA@ 0000000180012628     libucrt:exit.obj
 0002:00001640       ??_C@_0P@MIGLKIOC@CorExitProcess?$AA@ 0000000180012640     libucrt:exit.obj
 0002:000018b0       __newctype                 00000001800128b0     libucrt:ctype.obj
 0002:00001bb0       __newclmap                 0000000180012bb0     libucrt:ctype.obj
 0002:00001d30       __newcumap                 0000000180012d30     libucrt:ctype.obj
 0002:00001eb0       _wctype                    0000000180012eb0     libucrt:ctype.obj
 0002:000020c0       __lc_time_c                00000001800130c0     libucrt:nlsdata.obj
 0002:00002380       ??_C@_03KOEHGMDN@Sun?$AA@  0000000180013380     libucrt:nlsdata.obj
 0002:00002384       ??_C@_03PDAGKDH@Mon?$AA@   0000000180013384     libucrt:nlsdata.obj
 0002:00002388       ??_C@_03NAGEINEP@Tue?$AA@  0000000180013388     libucrt:nlsdata.obj
 0002:0000238c       ??_C@_03MHOMLAJA@Wed?$AA@  000000018001338c     libucrt:nlsdata.obj
 0002:00002390       ??_C@_03IOFIKPDN@Thu?$AA@  0000000180013390     libucrt:nlsdata.obj
 0002:00002394       ??_C@_03IDIOELNC@Fri?$AA@  0000000180013394     libucrt:nlsdata.obj
 0002:00002398       ??_C@_03FEFJNEK@Sat?$AA@   0000000180013398     libucrt:nlsdata.obj
 0002:0000239c       ??_C@_06OOPIFAJ@Sunday?$AA@ 000000018001339c     libucrt:nlsdata.obj
 0002:000023a4       ??_C@_06JLEDEDGH@Monday?$AA@ 00000001800133a4     libucrt:nlsdata.obj
 0002:000023b0       ??_C@_07BAAGCFCM@Tuesday?$AA@ 00000001800133b0     libucrt:nlsdata.obj
 0002:000023b8       ??_C@_09DLIGFAKA@Wednesday?$AA@ 00000001800133b8     libucrt:nlsdata.obj
 0002:000023c8       ??_C@_08HACCIKIA@Thursday?$AA@ 00000001800133c8     libucrt:nlsdata.obj
 0002:000023d4       ??_C@_06JECMNKMI@Friday?$AA@ 00000001800133d4     libucrt:nlsdata.obj
 0002:000023e0       ??_C@_08INBOOONO@Saturday?$AA@ 00000001800133e0     libucrt:nlsdata.obj
 0002:000023ec       ??_C@_03JIHJHPIE@Jan?$AA@  00000001800133ec     libucrt:nlsdata.obj
 0002:000023f0       ??_C@_03HJBDCHOM@Feb?$AA@  00000001800133f0     libucrt:nlsdata.obj
 0002:000023f4       ??_C@_03ODNJBKGA@Mar?$AA@  00000001800133f4     libucrt:nlsdata.obj
 0002:000023f8       ??_C@_03LEOLGMJP@Apr?$AA@  00000001800133f8     libucrt:nlsdata.obj
 0002:000023fc       ??_C@_03CNMDKL@May?$AA@    00000001800133fc     libucrt:nlsdata.obj
 0002:00002400       ??_C@_03IDFGHECI@Jun?$AA@  0000000180013400     libucrt:nlsdata.obj
 0002:00002404       ??_C@_03LBGABGKK@Jul?$AA@  0000000180013404     libucrt:nlsdata.obj
 0002:00002408       ??_C@_03IFJFEIGA@Aug?$AA@  0000000180013408     libucrt:nlsdata.obj
 0002:0000240c       ??_C@_03GGCAPAJC@Sep?$AA@  000000018001340c     libucrt:nlsdata.obj
 0002:00002410       ??_C@_03BMAOKBAD@Oct?$AA@  0000000180013410     libucrt:nlsdata.obj
 0002:00002414       ??_C@_03JPJOFNIA@Nov?$AA@  0000000180013414     libucrt:nlsdata.obj
 0002:00002418       ??_C@_03MKABNOCG@Dec?$AA@  0000000180013418     libucrt:nlsdata.obj
 0002:00002420       ??_C@_07CGJPFGJA@January?$AA@ 0000000180013420     libucrt:nlsdata.obj
 0002:00002428       ??_C@_08GNJGEPFN@February?$AA@ 0000000180013428     libucrt:nlsdata.obj
 0002:00002434       ??_C@_05HPCKOFNC@March?$AA@ 0000000180013434     libucrt:nlsdata.obj
 0002:0000243c       ??_C@_05DMJDNLEJ@April?$AA@ 000000018001343c     libucrt:nlsdata.obj
 0002:00002444       ??_C@_04CNLMGBGM@June?$AA@ 0000000180013444     libucrt:nlsdata.obj
 0002:0000244c       ??_C@_04MIEPOIFP@July?$AA@ 000000018001344c     libucrt:nlsdata.obj
 0002:00002454       ??_C@_06LBBHFDDG@August?$AA@ 0000000180013454     libucrt:nlsdata.obj
 0002:00002460       ??_C@_09BHHEALKD@September?$AA@ 0000000180013460     libucrt:nlsdata.obj
 0002:00002470       ??_C@_07JJNFCEND@October?$AA@ 0000000180013470     libucrt:nlsdata.obj
 0002:00002478       ??_C@_08HCHEGEOA@November?$AA@ 0000000180013478     libucrt:nlsdata.obj
 0002:00002488       ??_C@_08EDHMEBNP@December?$AA@ 0000000180013488     libucrt:nlsdata.obj
 0002:00002494       ??_C@_02DEDBPAFC@AM?$AA@   0000000180013494     libucrt:nlsdata.obj
 0002:00002498       ??_C@_02CJNFDJBF@PM?$AA@   0000000180013498     libucrt:nlsdata.obj
 0002:000024a0       ??_C@_08BPBNCDIB@MM?1dd?1yy?$AA@ 00000001800134a0     libucrt:nlsdata.obj
 0002:000024b0       ??_C@_0BE@CKGJFCPC@dddd?0?5MMMM?5dd?0?5yyyy?$AA@ 00000001800134b0     libucrt:nlsdata.obj
 0002:000024c8       ??_C@_08JCCMCCIL@HH?3mm?3ss?$AA@ 00000001800134c8     libucrt:nlsdata.obj
 0002:000024d8       ??_C@_17MBGCMIPB@?$AAS?$AAu?$AAn?$AA?$AA@ 00000001800134d8     libucrt:nlsdata.obj
 0002:000024e0       ??_C@_17KBOMKBF@?$AAM?$AAo?$AAn?$AA?$AA@ 00000001800134e0     libucrt:nlsdata.obj
 0002:000024e8       ??_C@_17BMKGEGOJ@?$AAT?$AAu?$AAe?$AA?$AA@ 00000001800134e8     libucrt:nlsdata.obj
 0002:000024f0       ??_C@_17CJEDCEPE@?$AAW?$AAe?$AAd?$AA?$AA@ 00000001800134f0     libucrt:nlsdata.obj
 0002:000024f8       ??_C@_17PDPHAADD@?$AAT?$AAh?$AAu?$AA?$AA@ 00000001800134f8     libucrt:nlsdata.obj
 0002:00002500       ??_C@_17HFOLPPLP@?$AAF?$AAr?$AAi?$AA?$AA@ 0000000180013500     libucrt:nlsdata.obj
 0002:00002508       ??_C@_17GGIBDPIH@?$AAS?$AAa?$AAt?$AA?$AA@ 0000000180013508     libucrt:nlsdata.obj
 0002:00002510       ??_C@_1O@IHNHDHPB@?$AAS?$AAu?$AAn?$AAd?$AAa?$AAy?$AA?$AA@ 0000000180013510     libucrt:nlsdata.obj
 0002:00002520       ??_C@_1O@MMNBFLIA@?$AAM?$AAo?$AAn?$AAd?$AAa?$AAy?$AA?$AA@ 0000000180013520     libucrt:nlsdata.obj
 0002:00002530       ??_C@_1BA@ENFBFFEK@?$AAT?$AAu?$AAe?$AAs?$AAd?$AAa?$AAy?$AA?$AA@ 0000000180013530     libucrt:nlsdata.obj
 0002:00002540       ??_C@_1BE@EBOGMDOH@?$AAW?$AAe?$AAd?$AAn?$AAe?$AAs?$AAd?$AAa?$AAy?$AA?$AA@ 0000000180013540     libucrt:nlsdata.obj
 0002:00002558       ??_C@_1BC@HHMNLIHE@?$AAT?$AAh?$AAu?$AAr?$AAs?$AAd?$AAa?$AAy?$AA?$AA@ 0000000180013558     libucrt:nlsdata.obj
 0002:00002570       ??_C@_1O@PDICJHAG@?$AAF?$AAr?$AAi?$AAd?$AAa?$AAy?$AA?$AA@ 0000000180013570     libucrt:nlsdata.obj
 0002:00002580       ??_C@_1BC@ENMNNPAJ@?$AAS?$AAa?$AAt?$AAu?$AAr?$AAd?$AAa?$AAy?$AA?$AA@ 0000000180013580     libucrt:nlsdata.obj
 0002:00002598       ??_C@_17DKNBKCHM@?$AAJ?$AAa?$AAn?$AA?$AA@ 0000000180013598     libucrt:nlsdata.obj
 0002:000025a0       ??_C@_17LMDJEKJN@?$AAF?$AAe?$AAb?$AA?$AA@ 00000001800135a0     libucrt:nlsdata.obj
 0002:000025a8       ??_C@_17CKNLEDEC@?$AAM?$AAa?$AAr?$AA?$AA@ 00000001800135a8     libucrt:nlsdata.obj
 0002:000025b0       ??_C@_17LFPOIHDD@?$AAA?$AAp?$AAr?$AA?$AA@ 00000001800135b0     libucrt:nlsdata.obj
 0002:000025b8       ??_C@_17PNNKMEED@?$AAM?$AAa?$AAy?$AA?$AA@ 00000001800135b8     libucrt:nlsdata.obj
 0002:000025c0       ??_C@_17KCJGOCPB@?$AAJ?$AAu?$AAn?$AA?$AA@ 00000001800135c0     libucrt:nlsdata.obj
 0002:000025c8       ??_C@_17IJPCKHK@?$AAJ?$AAu?$AAl?$AA?$AA@ 00000001800135c8     libucrt:nlsdata.obj
 0002:000025d0       ??_C@_17ICPELBCN@?$AAA?$AAu?$AAg?$AA?$AA@ 00000001800135d0     libucrt:nlsdata.obj
 0002:000025d8       ??_C@_17HCHCOKMG@?$AAS?$AAe?$AAp?$AA?$AA@ 00000001800135d8     libucrt:nlsdata.obj
 0002:000025e0       ??_C@_17FNLKOI@?$AAO?$AAc?$AAt?$AA?$AA@ 00000001800135e0     libucrt:nlsdata.obj
 0002:000025e8       ??_C@_17BBDMLCIG@?$AAN?$AAo?$AAv?$AA?$AA@ 00000001800135e8     libucrt:nlsdata.obj
 0002:000025f0       ??_C@_17EGKACKIF@?$AAD?$AAe?$AAc?$AA?$AA@ 00000001800135f0     libucrt:nlsdata.obj
 0002:000025f8       ??_C@_1BA@EFMEIEBA@?$AAJ?$AAa?$AAn?$AAu?$AAa?$AAr?$AAy?$AA?$AA@ 00000001800135f8     libucrt:nlsdata.obj
 0002:00002608       ??_C@_1BC@JGDDFFAM@?$AAF?$AAe?$AAb?$AAr?$AAu?$AAa?$AAr?$AAy?$AA?$AA@ 0000000180013608     libucrt:nlsdata.obj
 0002:00002620       ??_C@_1M@IKEENEDF@?$AAM?$AAa?$AAr?$AAc?$AAh?$AA?$AA@ 0000000180013620     libucrt:nlsdata.obj
 0002:00002630       ??_C@_1M@GJNLMHFD@?$AAA?$AAp?$AAr?$AAi?$AAl?$AA?$AA@ 0000000180013630     libucrt:nlsdata.obj
 0002:00002640       ??_C@_19EPFLPGAP@?$AAJ?$AAu?$AAn?$AAe?$AA?$AA@ 0000000180013640     libucrt:nlsdata.obj
 0002:00002650       ??_C@_19BIFMLPCD@?$AAJ?$AAu?$AAl?$AAy?$AA?$AA@ 0000000180013650     libucrt:nlsdata.obj
 0002:00002660       ??_C@_1O@PAHLKOAC@?$AAA?$AAu?$AAg?$AAu?$AAs?$AAt?$AA?$AA@ 0000000180013660     libucrt:nlsdata.obj
 0002:00002670       ??_C@_1BE@DKAAMBJL@?$AAS?$AAe?$AAp?$AAt?$AAe?$AAm?$AAb?$AAe?$AAr?$AA?$AA@ 0000000180013670     libucrt:nlsdata.obj
 0002:00002688       ??_C@_1BA@EPANDLNG@?$AAO?$AAc?$AAt?$AAo?$AAb?$AAe?$AAr?$AA?$AA@ 0000000180013688     libucrt:nlsdata.obj
 0002:00002698       ??_C@_1BC@BGLIFPF@?$AAN?$AAo?$AAv?$AAe?$AAm?$AAb?$AAe?$AAr?$AA?$AA@ 0000000180013698     libucrt:nlsdata.obj
 0002:000026b0       ??_C@_1BC@FEMKIFH@?$AAD?$AAe?$AAc?$AAe?$AAm?$AAb?$AAe?$AAr?$AA?$AA@ 00000001800136b0     libucrt:nlsdata.obj
 0002:000026c4       ??_C@_15ODEHAHHF@?$AAA?$AAM?$AA?$AA@ 00000001800136c4     libucrt:nlsdata.obj
 0002:000026cc       ??_C@_15CLMNNGEL@?$AAP?$AAM?$AA?$AA@ 00000001800136cc     libucrt:nlsdata.obj
 0002:000026d8       ??_C@_1BC@IEBCMHCM@?$AAM?$AAM?$AA?1?$AAd?$AAd?$AA?1?$AAy?$AAy?$AA?$AA@ 00000001800136d8     libucrt:nlsdata.obj
 0002:000026f0       ??_C@_1CI@KNAKOEBC@?$AAd?$AAd?$AAd?$AAd?$AA?0?$AA?5?$AAM?$AAM?$AAM?$AAM?$AA?5?$AAd?$AAd?$AA?0?$AA?5?$AAy?$AAy?$AAy?$AAy?$AA?$AA@ 00000001800136f0     libucrt:nlsdata.obj
 0002:00002718       ??_C@_1BC@GDGBMEMK@?$AAH?$AAH?$AA?3?$AAm?$AAm?$AA?3?$AAs?$AAs?$AA?$AA@ 0000000180013718     libucrt:nlsdata.obj
 0002:00002730       ??_C@_1M@BMHNFIME@?$AAe?$AAn?$AA?9?$AAU?$AAS?$AA?$AA@ 0000000180013730     libucrt:nlsdata.obj
 0002:000027e0       ??_C@_1EG@CNNIPFIM@?$AAa?$AAp?$AAi?$AA?9?$AAm?$AAs?$AA?9?$AAw?$AAi?$AAn?$AA?9?$AAa?$AAp?$AAp?$AAm?$AAo?$AAd?$AAe?$AAl?$AA?9?$AAr?$AAu?$AAn?$AAt?$AAi?$AAm?$AAe?$AA?9?$AAl?$AA1?$AA?9?$AA1@ 00000001800137e0     libucrt:winapi_thunks.obj
 0002:00002830       ??_C@_1EA@JGEFHKEI@?$AAa?$AAp?$AAi?$AA?9?$AAm?$AAs?$AA?9?$AAw?$AAi?$AAn?$AA?9?$AAc?$AAo?$AAr?$AAe?$AA?9?$AAd?$AAa?$AAt?$AAe?$AAt?$AAi?$AAm?$AAe?$AA?9?$AAl?$AA1?$AA?9?$AA1?$AA?9?$AA1?$AA?$AA@ 0000000180013830     libucrt:winapi_thunks.obj
 0002:00002870       ??_C@_1EI@MPIAOHOC@?$AAa?$AAp?$AAi?$AA?9?$AAm?$AAs?$AA?9?$AAw?$AAi?$AAn?$AA?9?$AAc?$AAo?$AAr?$AAe?$AA?9?$AAl?$AAo?$AAc?$AAa?$AAl?$AAi?$AAz?$AAa?$AAt?$AAi?$AAo?$AAn?$AA?9?$AAl?$AA1?$AA?9@ 0000000180013870     libucrt:winapi_thunks.obj
 0002:000028c0       ??_C@_1FK@FPHCKFIE@?$AAa?$AAp?$AAi?$AA?9?$AAm?$AAs?$AA?9?$AAw?$AAi?$AAn?$AA?9?$AAc?$AAo?$AAr?$AAe?$AA?9?$AAl?$AAo?$AAc?$AAa?$AAl?$AAi?$AAz?$AAa?$AAt?$AAi?$AAo?$AAn?$AA?9?$AAo?$AAb?$AAs@ 00000001800138c0     libucrt:winapi_thunks.obj
 0002:00002920       ??_C@_1EM@DILCGIIO@?$AAa?$AAp?$AAi?$AA?9?$AAm?$AAs?$AA?9?$AAw?$AAi?$AAn?$AA?9?$AAc?$AAo?$AAr?$AAe?$AA?9?$AAp?$AAr?$AAo?$AAc?$AAe?$AAs?$AAs?$AAt?$AAh?$AAr?$AAe?$AAa?$AAd?$AAs?$AA?9?$AAl@ 0000000180013920     libucrt:winapi_thunks.obj
 0002:00002970       ??_C@_1DM@LNCGDDPN@?$AAa?$AAp?$AAi?$AA?9?$AAm?$AAs?$AA?9?$AAw?$AAi?$AAn?$AA?9?$AAc?$AAo?$AAr?$AAe?$AA?9?$AAs?$AAt?$AAr?$AAi?$AAn?$AAg?$AA?9?$AAl?$AA1?$AA?9?$AA1?$AA?9?$AA0?$AA?$AA@ 0000000180013970     libucrt:winapi_thunks.obj
 0002:000029b0       ??_C@_1DO@FPAPJEMD@?$AAa?$AAp?$AAi?$AA?9?$AAm?$AAs?$AA?9?$AAw?$AAi?$AAn?$AA?9?$AAc?$AAo?$AAr?$AAe?$AA?9?$AAs?$AAy?$AAs?$AAi?$AAn?$AAf?$AAo?$AA?9?$AAl?$AA1?$AA?9?$AA2?$AA?9?$AA1?$AA?$AA@ 00000001800139b0     libucrt:winapi_thunks.obj
 0002:000029f0       ??_C@_1DK@NDHNAHIO@?$AAa?$AAp?$AAi?$AA?9?$AAm?$AAs?$AA?9?$AAw?$AAi?$AAn?$AA?9?$AAc?$AAo?$AAr?$AAe?$AA?9?$AAw?$AAi?$AAn?$AAr?$AAt?$AA?9?$AAl?$AA1?$AA?9?$AA1?$AA?9?$AA0?$AA?$AA@ 00000001800139f0     libucrt:winapi_thunks.obj
 0002:00002a30       ??_C@_1DM@KGHDGBCM@?$AAa?$AAp?$AAi?$AA?9?$AAm?$AAs?$AA?9?$AAw?$AAi?$AAn?$AA?9?$AAc?$AAo?$AAr?$AAe?$AA?9?$AAx?$AAs?$AAt?$AAa?$AAt?$AAe?$AA?9?$AAl?$AA2?$AA?9?$AA1?$AA?9?$AA0?$AA?$AA@ 0000000180013a30     libucrt:winapi_thunks.obj
 0002:00002a70       ??_C@_1EO@IJIOEFOH@?$AAa?$AAp?$AAi?$AA?9?$AAm?$AAs?$AA?9?$AAw?$AAi?$AAn?$AA?9?$AAr?$AAt?$AAc?$AAo?$AAr?$AAe?$AA?9?$AAn?$AAt?$AAu?$AAs?$AAe?$AAr?$AA?9?$AAw?$AAi?$AAn?$AAd?$AAo?$AAw?$AA?9@ 0000000180013a70     libucrt:winapi_thunks.obj
 0002:00002ac0       ??_C@_1FG@HHGEKANL@?$AAa?$AAp?$AAi?$AA?9?$AAm?$AAs?$AA?9?$AAw?$AAi?$AAn?$AA?9?$AAs?$AAe?$AAc?$AAu?$AAr?$AAi?$AAt?$AAy?$AA?9?$AAs?$AAy?$AAs?$AAt?$AAe?$AAm?$AAf?$AAu?$AAn?$AAc?$AAt?$AAi@ 0000000180013ac0     libucrt:winapi_thunks.obj
 0002:00002b20       ??_C@_1FG@NCKKOLKO@?$AAe?$AAx?$AAt?$AA?9?$AAm?$AAs?$AA?9?$AAw?$AAi?$AAn?$AA?9?$AAk?$AAe?$AAr?$AAn?$AAe?$AAl?$AA3?$AA2?$AA?9?$AAp?$AAa?$AAc?$AAk?$AAa?$AAg?$AAe?$AA?9?$AAc?$AAu?$AAr?$AAr@ 0000000180013b20     libucrt:winapi_thunks.obj
 0002:00002b80       ??_C@_1EG@DBIOJECG@?$AAe?$AAx?$AAt?$AA?9?$AAm?$AAs?$AA?9?$AAw?$AAi?$AAn?$AA?9?$AAn?$AAt?$AAu?$AAs?$AAe?$AAr?$AA?9?$AAd?$AAi?$AAa?$AAl?$AAo?$AAg?$AAb?$AAo?$AAx?$AA?9?$AAl?$AA1?$AA?9?$AA1@ 0000000180013b80     libucrt:winapi_thunks.obj
 0002:00002bd0       ??_C@_1EO@FIHMJCLF@?$AAe?$AAx?$AAt?$AA?9?$AAm?$AAs?$AA?9?$AAw?$AAi?$AAn?$AA?9?$AAn?$AAt?$AAu?$AAs?$AAe?$AAr?$AA?9?$AAw?$AAi?$AAn?$AAd?$AAo?$AAw?$AAs?$AAt?$AAa?$AAt?$AAi?$AAo?$AAn?$AA?9@ 0000000180013bd0     libucrt:winapi_thunks.obj
 0002:00002c20       ??_C@_1O@BCCLBEOE@?$AAu?$AAs?$AAe?$AAr?$AA3?$AA2?$AA?$AA@ 0000000180013c20     libucrt:winapi_thunks.obj
 0002:00002c58       ??_C@_0BE@JOGNEJCI@GetCurrentPackageId?$AA@ 0000000180013c58     libucrt:winapi_thunks.obj
 0002:00002c80       ??_C@_0O@KKBNKAPF@LCMapStringEx?$AA@ 0000000180013c80     libucrt:winapi_thunks.obj
 0002:00002c98       ??_C@_0BB@HBDEELFH@LocaleNameToLCID?$AA@ 0000000180013c98     libucrt:winapi_thunks.obj
 0002:00002cd0       ??_C@_1M@HPNHIDJI@?$AAj?$AAa?$AA?9?$AAJ?$AAP?$AA?$AA@ 0000000180013cd0     libucrt:mbctype.obj
 0002:00002ce0       ??_C@_1M@BIBDDEMK@?$AAz?$AAh?$AA?9?$AAC?$AAN?$AA?$AA@ 0000000180013ce0     libucrt:mbctype.obj
 0002:00002cf0       ??_C@_1M@JLOOOEGK@?$AAk?$AAo?$AA?9?$AAK?$AAR?$AA?$AA@ 0000000180013cf0     libucrt:mbctype.obj
 0002:00002d00       ??_C@_1M@CLNBBOPM@?$AAz?$AAh?$AA?9?$AAT?$AAW?$AA?$AA@ 0000000180013d00     libucrt:mbctype.obj
 0002:00002d0c       ??_C@_15PJPFLCCM@?$AAu?$AAk?$AA?$AA@ 0000000180013d0c     libucrt:get_qualified_locale.obj
 0002:00002d18       ??_C@_1M@MILPAJJC@?$AAh?$AAy?$AA?9?$AAa?$AAm?$AA?$AA@ 0000000180013d18     libucrt:lcidtoname_downlevel.obj
 0002:00002d28       ??_C@_1M@BABBICEC@?$AAi?$AAd?$AA?9?$AAi?$AAd?$AA?$AA@ 0000000180013d28     libucrt:lcidtoname_downlevel.obj
 0002:00002d38       ??_C@_1M@BIKNHHPF@?$AAi?$AAs?$AA?9?$AAi?$AAs?$AA?$AA@ 0000000180013d38     libucrt:lcidtoname_downlevel.obj
 0002:00002d48       ??_C@_1M@NMPCJPHE@?$AAi?$AAt?$AA?9?$AAc?$AAh?$AA?$AA@ 0000000180013d48     libucrt:lcidtoname_downlevel.obj
 0002:00002d58       ??_C@_1M@GHKGFEDF@?$AAi?$AAt?$AA?9?$AAi?$AAt?$AA?$AA@ 0000000180013d58     libucrt:lcidtoname_downlevel.obj
 0002:00002d68       ??_C@_1M@NIEJCJJA@?$AAj?$AAa?$AA?9?$AAj?$AAp?$AA?$AA@ 0000000180013d68     libucrt:lcidtoname_downlevel.obj
 0002:00002d78       ??_C@_1M@JILFNBIM@?$AAk?$AAa?$AA?9?$AAg?$AAe?$AA?$AA@ 0000000180013d78     libucrt:lcidtoname_downlevel.obj
 0002:00002d88       ??_C@_1M@PACPMGPH@?$AAk?$AAk?$AA?9?$AAk?$AAz?$AA?$AA@ 0000000180013d88     libucrt:lcidtoname_downlevel.obj
 0002:00002d98       ??_C@_1M@IELFGMHA@?$AAk?$AAn?$AA?9?$AAi?$AAn?$AA?$AA@ 0000000180013d98     libucrt:lcidtoname_downlevel.obj
 0002:00002da8       ??_C@_1O@IBBJHCH@?$AAk?$AAo?$AAk?$AA?9?$AAi?$AAn?$AA?$AA@ 0000000180013da8     libucrt:lcidtoname_downlevel.obj
 0002:00002db8       ??_C@_1M@DMHAEOGC@?$AAk?$AAo?$AA?9?$AAk?$AAr?$AA?$AA@ 0000000180013db8     libucrt:lcidtoname_downlevel.obj
 0002:00002dc8       ??_C@_1M@HBAHBIGA@?$AAk?$AAy?$AA?9?$AAk?$AAg?$AA?$AA@ 0000000180013dc8     libucrt:lcidtoname_downlevel.obj
 0002:00002dd8       ??_C@_1M@KPMILCJG@?$AAl?$AAt?$AA?9?$AAl?$AAt?$AA?$AA@ 0000000180013dd8     libucrt:lcidtoname_downlevel.obj
 0002:00002de8       ??_C@_1M@BDEKKCA@?$AAl?$AAv?$AA?9?$AAl?$AAv?$AA?$AA@ 0000000180013de8     libucrt:lcidtoname_downlevel.obj
 0002:00002df8       ??_C@_1M@ELCKCCJJ@?$AAm?$AAi?$AA?9?$AAn?$AAz?$AA?$AA@ 0000000180013df8     libucrt:lcidtoname_downlevel.obj
 0002:00002e08       ??_C@_1M@CBOOLAPA@?$AAm?$AAk?$AA?9?$AAm?$AAk?$AA?$AA@ 0000000180013e08     libucrt:lcidtoname_downlevel.obj
 0002:00002e18       ??_C@_1M@GPHNBJKN@?$AAm?$AAl?$AA?9?$AAi?$AAn?$AA?$AA@ 0000000180013e18     libucrt:lcidtoname_downlevel.obj
 0002:00002e28       ??_C@_1M@PABJILIG@?$AAm?$AAn?$AA?9?$AAm?$AAn?$AA?$AA@ 0000000180013e28     libucrt:lcidtoname_downlevel.obj
 0002:00002e38       ??_C@_1M@FGBKKIPG@?$AAm?$AAr?$AA?9?$AAi?$AAn?$AA?$AA@ 0000000180013e38     libucrt:lcidtoname_downlevel.obj
 0002:00002e48       ??_C@_1M@NDBPDDAL@?$AAm?$AAs?$AA?9?$AAb?$AAn?$AA?$AA@ 0000000180013e48     libucrt:lcidtoname_downlevel.obj
 0002:00002e58       ??_C@_1M@OPIHOOPI@?$AAm?$AAs?$AA?9?$AAm?$AAy?$AA?$AA@ 0000000180013e58     libucrt:lcidtoname_downlevel.obj
 0002:00002e68       ??_C@_1M@PPDBCNFM@?$AAm?$AAt?$AA?9?$AAm?$AAt?$AA?$AA@ 0000000180013e68     libucrt:lcidtoname_downlevel.obj
 0002:00002e78       ??_C@_1M@KDJDKMDD@?$AAn?$AAb?$AA?9?$AAn?$AAo?$AA?$AA@ 0000000180013e78     libucrt:lcidtoname_downlevel.obj
 0002:00002e88       ??_C@_1M@KFCFLMJP@?$AAn?$AAl?$AA?9?$AAb?$AAe?$AA?$AA@ 0000000180013e88     libucrt:lcidtoname_downlevel.obj
 0002:00002e98       ??_C@_1M@KPOPDDGO@?$AAn?$AAl?$AA?9?$AAn?$AAl?$AA?$AA@ 0000000180013e98     libucrt:lcidtoname_downlevel.obj
 0002:00002ea8       ??_C@_1M@LJKPEMLN@?$AAn?$AAn?$AA?9?$AAn?$AAo?$AA?$AA@ 0000000180013ea8     libucrt:lcidtoname_downlevel.obj
 0002:00002eb8       ??_C@_1M@BDGHHBFL@?$AAn?$AAs?$AA?9?$AAz?$AAa?$AA?$AA@ 0000000180013eb8     libucrt:lcidtoname_downlevel.obj
 0002:00002ec8       ??_C@_1M@IDEHOAP@?$AAp?$AAa?$AA?9?$AAi?$AAn?$AA?$AA@ 0000000180013ec8     libucrt:lcidtoname_downlevel.obj
 0002:00002ed8       ??_C@_1M@HDBKGOGH@?$AAp?$AAl?$AA?9?$AAp?$AAl?$AA?$AA@ 0000000180013ed8     libucrt:lcidtoname_downlevel.obj
 0002:00002ee8       ??_C@_1M@LJLLCMEH@?$AAp?$AAt?$AA?9?$AAb?$AAr?$AA?$AA@ 0000000180013ee8     libucrt:lcidtoname_downlevel.obj
 0002:00002ef8       ??_C@_1M@NCMONAAL@?$AAp?$AAt?$AA?9?$AAp?$AAt?$AA?$AA@ 0000000180013ef8     libucrt:lcidtoname_downlevel.obj
 0002:00002f08       ??_C@_1O@EAKMAJDN@?$AAq?$AAu?$AAz?$AA?9?$AAb?$AAo?$AA?$AA@ 0000000180013f08     libucrt:lcidtoname_downlevel.obj
 0002:00002f18       ??_C@_1O@BHHPIGDN@?$AAq?$AAu?$AAz?$AA?9?$AAe?$AAc?$AA?$AA@ 0000000180013f18     libucrt:lcidtoname_downlevel.obj
 0002:00002f28       ??_C@_1O@GBAPEKMJ@?$AAq?$AAu?$AAz?$AA?9?$AAp?$AAe?$AA?$AA@ 0000000180013f28     libucrt:lcidtoname_downlevel.obj
 0002:00002f38       ??_C@_1M@CLGLEFBO@?$AAr?$AAo?$AA?9?$AAr?$AAo?$AA?$AA@ 0000000180013f38     libucrt:lcidtoname_downlevel.obj
 0002:00002f48       ??_C@_1M@CEEDODME@?$AAr?$AAu?$AA?9?$AAr?$AAu?$AA?$AA@ 0000000180013f48     libucrt:lcidtoname_downlevel.obj
 0002:00002f58       ??_C@_1M@HPKKKMPP@?$AAs?$AAa?$AA?9?$AAi?$AAn?$AA?$AA@ 0000000180013f58     libucrt:lcidtoname_downlevel.obj
 0002:00002f68       ??_C@_1M@BKMAIGOJ@?$AAs?$AAe?$AA?9?$AAf?$AAi?$AA?$AA@ 0000000180013f68     libucrt:lcidtoname_downlevel.obj
 0002:00002f78       ??_C@_1M@NDPIFLFI@?$AAs?$AAe?$AA?9?$AAn?$AAo?$AA?$AA@ 0000000180013f78     libucrt:lcidtoname_downlevel.obj
 0002:00002f88       ??_C@_1M@DANKKHJ@?$AAs?$AAe?$AA?9?$AAs?$AAe?$AA?$AA@ 0000000180013f88     libucrt:lcidtoname_downlevel.obj
 0002:00002f98       ??_C@_1M@PNBLONPJ@?$AAs?$AAk?$AA?9?$AAs?$AAk?$AA?$AA@ 0000000180013f98     libucrt:lcidtoname_downlevel.obj
 0002:00002fa8       ??_C@_1M@LFMODOAL@?$AAs?$AAl?$AA?9?$AAs?$AAi?$AA?$AA@ 0000000180013fa8     libucrt:lcidtoname_downlevel.obj
 0002:00002fb8       ??_C@_1O@DFKOMPG@?$AAs?$AAm?$AAa?$AA?9?$AAn?$AAo?$AA?$AA@ 0000000180013fb8     libucrt:lcidtoname_downlevel.obj
 0002:00002fc8       ??_C@_1O@NDKPBNNH@?$AAs?$AAm?$AAa?$AA?9?$AAs?$AAe?$AA?$AA@ 0000000180013fc8     libucrt:lcidtoname_downlevel.obj
 0002:00002fd8       ??_C@_1O@PLLKBHAB@?$AAs?$AAm?$AAj?$AA?9?$AAn?$AAo?$AA?$AA@ 0000000180013fd8     libucrt:lcidtoname_downlevel.obj
 0002:00002fe8       ??_C@_1O@CLEPOGCA@?$AAs?$AAm?$AAj?$AA?9?$AAs?$AAe?$AA?$AA@ 0000000180013fe8     libucrt:lcidtoname_downlevel.obj
 0002:00002ff8       ??_C@_1O@DLGJGKMK@?$AAs?$AAm?$AAn?$AA?9?$AAf?$AAi?$AA?$AA@ 0000000180013ff8     libucrt:lcidtoname_downlevel.obj
 0002:00003008       ??_C@_1O@OJDJGAJC@?$AAs?$AAm?$AAs?$AA?9?$AAf?$AAi?$AA?$AA@ 0000000180014008     libucrt:lcidtoname_downlevel.obj
 0002:00003018       ??_C@_1M@BOFOGHPB@?$AAs?$AAq?$AA?9?$AAa?$AAl?$AA?$AA@ 0000000180014018     libucrt:lcidtoname_downlevel.obj
 0002:00003028       ??_C@_1BG@LJBBIPGB@?$AAs?$AAr?$AA?9?$AAb?$AAa?$AA?9?$AAc?$AAy?$AAr?$AAl?$AA?$AA@ 0000000180014028     libucrt:lcidtoname_downlevel.obj
 0002:00003040       ??_C@_1BG@JLBENFOE@?$AAs?$AAr?$AA?9?$AAb?$AAa?$AA?9?$AAl?$AAa?$AAt?$AAn?$AA?$AA@ 0000000180014040     libucrt:lcidtoname_downlevel.obj
 0002:00003058       ??_C@_1BG@KODPNHE@?$AAs?$AAr?$AA?9?$AAs?$AAp?$AA?9?$AAc?$AAy?$AAr?$AAl?$AA?$AA@ 0000000180014058     libucrt:lcidtoname_downlevel.obj
 0002:00003070       ??_C@_1BG@CIOGKHPB@?$AAs?$AAr?$AA?9?$AAs?$AAp?$AA?9?$AAl?$AAa?$AAt?$AAn?$AA?$AA@ 0000000180014070     libucrt:lcidtoname_downlevel.obj
 0002:00003088       ??_C@_1M@NGFJLMAC@?$AAs?$AAv?$AA?9?$AAf?$AAi?$AA?$AA@ 0000000180014088     libucrt:lcidtoname_downlevel.obj
 0002:00003098       ??_C@_1M@MPJEJAJC@?$AAs?$AAv?$AA?9?$AAs?$AAe?$AA?$AA@ 0000000180014098     libucrt:lcidtoname_downlevel.obj
 0002:000030a8       ??_C@_1M@MPNDHLFK@?$AAs?$AAw?$AA?9?$AAk?$AAe?$AA?$AA@ 00000001800140a8     libucrt:lcidtoname_downlevel.obj
 0002:000030b8       ??_C@_1O@KOHBJJI@?$AAs?$AAy?$AAr?$AA?9?$AAs?$AAy?$AA?$AA@ 00000001800140b8     libucrt:lcidtoname_downlevel.obj
 0002:000030c8       ??_C@_1M@LDCEFHA@?$AAt?$AAa?$AA?9?$AAi?$AAn?$AA?$AA@ 00000001800140c8     libucrt:lcidtoname_downlevel.obj
 0002:000030d8       ??_C@_1M@CNJOFAK@?$AAt?$AAe?$AA?9?$AAi?$AAn?$AA?$AA@ 00000001800140d8     libucrt:lcidtoname_downlevel.obj
 0002:000030e8       ??_C@_1M@GNAECACD@?$AAt?$AAh?$AA?9?$AAt?$AAh?$AA?$AA@ 00000001800140e8     libucrt:lcidtoname_downlevel.obj
 0002:000030f8       ??_C@_1M@CHBIHOJO@?$AAt?$AAn?$AA?9?$AAz?$AAa?$AA?$AA@ 00000001800140f8     libucrt:lcidtoname_downlevel.obj
 0002:00003108       ??_C@_1M@GCCMIGPJ@?$AAt?$AAr?$AA?9?$AAt?$AAr?$AA?$AA@ 0000000180014108     libucrt:lcidtoname_downlevel.obj
 0002:00003118       ??_C@_1M@CELMCNBK@?$AAt?$AAt?$AA?9?$AAr?$AAu?$AA?$AA@ 0000000180014118     libucrt:lcidtoname_downlevel.obj
 0002:00003128       ??_C@_1M@KLMCELGA@?$AAu?$AAk?$AA?9?$AAu?$AAa?$AA?$AA@ 0000000180014128     libucrt:lcidtoname_downlevel.obj
 0002:00003138       ??_C@_1M@EPAJJAJF@?$AAu?$AAr?$AA?9?$AAp?$AAk?$AA?$AA@ 0000000180014138     libucrt:lcidtoname_downlevel.obj
 0002:00003148       ??_C@_1BG@GEGPMCDJ@?$AAu?$AAz?$AA?9?$AAu?$AAz?$AA?9?$AAc?$AAy?$AAr?$AAl?$AA?$AA@ 0000000180014148     libucrt:lcidtoname_downlevel.obj
 0002:00003160       ??_C@_1BG@EGGKJILM@?$AAu?$AAz?$AA?9?$AAu?$AAz?$AA?9?$AAl?$AAa?$AAt?$AAn?$AA?$AA@ 0000000180014160     libucrt:lcidtoname_downlevel.obj
 0002:00003178       ??_C@_1M@GFOCLFF@?$AAv?$AAi?$AA?9?$AAv?$AAn?$AA?$AA@ 0000000180014178     libucrt:lcidtoname_downlevel.obj
 0002:00003188       ??_C@_1M@CPAMEDFI@?$AAx?$AAh?$AA?9?$AAz?$AAa?$AA?$AA@ 0000000180014188     libucrt:lcidtoname_downlevel.obj
 0002:00003198       ??_C@_1O@EBKIFIGN@?$AAz?$AAh?$AA?9?$AAc?$AAh?$AAs?$AA?$AA@ 0000000180014198     libucrt:lcidtoname_downlevel.obj
 0002:000031a8       ??_C@_1O@NMHPGANE@?$AAz?$AAh?$AA?9?$AAc?$AAh?$AAt?$AA?$AA@ 00000001800141a8     libucrt:lcidtoname_downlevel.obj
 0002:000031b8       ??_C@_1M@LPINJOMC@?$AAz?$AAh?$AA?9?$AAc?$AAn?$AA?$AA@ 00000001800141b8     libucrt:lcidtoname_downlevel.obj
 0002:000031c8       ??_C@_1M@OCJEJODD@?$AAz?$AAh?$AA?9?$AAh?$AAk?$AA?$AA@ 00000001800141c8     libucrt:lcidtoname_downlevel.obj
 0002:000031d8       ??_C@_1M@DNDLJINH@?$AAz?$AAh?$AA?9?$AAm?$AAo?$AA?$AA@ 00000001800141d8     libucrt:lcidtoname_downlevel.obj
 0002:000031e8       ??_C@_1M@MBFDNDND@?$AAz?$AAh?$AA?9?$AAs?$AAg?$AA?$AA@ 00000001800141e8     libucrt:lcidtoname_downlevel.obj
 0002:000031f8       ??_C@_1M@IMEPLEPE@?$AAz?$AAh?$AA?9?$AAt?$AAw?$AA?$AA@ 00000001800141f8     libucrt:lcidtoname_downlevel.obj
 0002:00003208       ??_C@_1M@BBGHNHJP@?$AAz?$AAu?$AA?9?$AAz?$AAa?$AA?$AA@ 0000000180014208     libucrt:lcidtoname_downlevel.obj
 0002:00004060       ??_C@_15EMKDOKLE@?$AAa?$AAr?$AA?$AA@ 0000000180015060     libucrt:lcidtoname_downlevel.obj
 0002:00004068       ??_C@_15KNPADPLH@?$AAb?$AAg?$AA?$AA@ 0000000180015068     libucrt:lcidtoname_downlevel.obj
 0002:00004070       ??_C@_15EDMHLDMO@?$AAc?$AAa?$AA?$AA@ 0000000180015070     libucrt:lcidtoname_downlevel.obj
 0002:00004078       ??_C@_1O@BPEAJADD@?$AAz?$AAh?$AA?9?$AAC?$AAH?$AAS?$AA?$AA@ 0000000180015078     libucrt:lcidtoname_downlevel.obj
 0002:00004088       ??_C@_15LJNHCMNK@?$AAc?$AAs?$AA?$AA@ 0000000180015088     libucrt:lcidtoname_downlevel.obj
 0002:00004090       ??_C@_15FOMCIDHG@?$AAd?$AAa?$AA?$AA@ 0000000180015090     libucrt:lcidtoname_downlevel.obj
 0002:00004098       ??_C@_15NBKABECB@?$AAd?$AAe?$AA?$AA@ 0000000180015098     libucrt:lcidtoname_downlevel.obj
 0002:000040a0       ??_C@_15GHPEIIAO@?$AAe?$AAl?$AA?$AA@ 00000001800150a0     libucrt:lcidtoname_downlevel.obj
 0002:000040a8       ??_C@_15MNPNEAIF@?$AAe?$AAn?$AA?$AA@ 00000001800150a8     libucrt:lcidtoname_downlevel.obj
 0002:000040b0       ??_C@_15GPIOMPMH@?$AAe?$AAs?$AA?$AA@ 00000001800150b0     libucrt:lcidtoname_downlevel.obj
 0002:000040b8       ??_C@_15NGLOAKJC@?$AAf?$AAi?$AA?$AA@ 00000001800150b8     libucrt:lcidtoname_downlevel.obj
 0002:000040c0       ??_C@_15FBKGNKAM@?$AAf?$AAr?$AA?$AA@ 00000001800150c0     libucrt:lcidtoname_downlevel.obj
 0002:000040c8       ??_C@_15KGGCNEFK@?$AAh?$AAe?$AA?$AA@ 00000001800150c8     libucrt:lcidtoname_downlevel.obj
 0002:000040d0       ??_C@_15PGHLIDMF@?$AAh?$AAu?$AA?$AA@ 00000001800150d0     libucrt:lcidtoname_downlevel.obj
 0002:000040d8       ??_C@_15BIEMAPLM@?$AAi?$AAs?$AA?$AA@ 00000001800150d8     libucrt:lcidtoname_downlevel.obj
 0002:000040e0       ??_C@_15IFJLDHAF@?$AAi?$AAt?$AA?$AA@ 00000001800150e0     libucrt:lcidtoname_downlevel.obj
 0002:000040e8       ??_C@_15GEMIOCAG@?$AAj?$AAa?$AA?$AA@ 00000001800150e8     libucrt:lcidtoname_downlevel.obj
 0002:000040f0       ??_C@_15EPELEGJA@?$AAk?$AAo?$AA?$AA@ 00000001800150f0     libucrt:lcidtoname_downlevel.obj
 0002:000040f8       ??_C@_15NDDHIMN@?$AAn?$AAl?$AA?$AA@ 00000001800150f8     libucrt:lcidtoname_downlevel.obj
 0002:00004100       ??_C@_15BPIGNHCD@?$AAn?$AAo?$AA?$AA@ 0000000180015100     libucrt:lcidtoname_downlevel.obj
 0002:00004108       ??_C@_15DEOPBLCG@?$AAp?$AAl?$AA?$AA@ 0000000180015108     libucrt:lcidtoname_downlevel.obj
 0002:00004110       ??_C@_15KBECGEFG@?$AAp?$AAt?$AA?$AA@ 0000000180015110     libucrt:lcidtoname_downlevel.obj
 0002:00004118       ??_C@_15GLJCBFMD@?$AAr?$AAo?$AA?$AA@ 0000000180015118     libucrt:lcidtoname_downlevel.obj
 0002:00004120       ??_C@_15FEDGKCDI@?$AAr?$AAu?$AA?$AA@ 0000000180015120     libucrt:lcidtoname_downlevel.obj
 0002:00004128       ??_C@_15GLKMLLHM@?$AAh?$AAr?$AA?$AA@ 0000000180015128     libucrt:lcidtoname_downlevel.obj
 0002:00004130       ??_C@_15CPKMFBDB@?$AAs?$AAk?$AA?$AA@ 0000000180015130     libucrt:lcidtoname_downlevel.obj
 0002:00004138       ??_C@_15BAAIOGMK@?$AAs?$AAq?$AA?$AA@ 0000000180015138     libucrt:lcidtoname_downlevel.obj
 0002:00004140       ??_C@_15INNPNOHD@?$AAs?$AAv?$AA?$AA@ 0000000180015140     libucrt:lcidtoname_downlevel.obj
 0002:00004148       ??_C@_15CABMMOGH@?$AAt?$AAh?$AA?$AA@ 0000000180015148     libucrt:lcidtoname_downlevel.obj
 0002:00004150       ??_C@_15BPLIHJJM@?$AAt?$AAr?$AA?$AA@ 0000000180015150     libucrt:lcidtoname_downlevel.obj
 0002:00004158       ??_C@_15NEOEKKDJ@?$AAu?$AAr?$AA?$AA@ 0000000180015158     libucrt:lcidtoname_downlevel.obj
 0002:00004160       ??_C@_15NFICGAJK@?$AAi?$AAd?$AA?$AA@ 0000000180015160     libucrt:lcidtoname_downlevel.obj
 0002:00004168       ??_C@_15HPJPHDM@?$AAb?$AAe?$AA?$AA@ 0000000180015168     libucrt:lcidtoname_downlevel.obj
 0002:00004170       ??_C@_15LCHLGJII@?$AAs?$AAl?$AA?$AA@ 0000000180015170     libucrt:lcidtoname_downlevel.obj
 0002:00004178       ??_C@_15PCFJPHHO@?$AAe?$AAt?$AA?$AA@ 0000000180015178     libucrt:lcidtoname_downlevel.obj
 0002:00004180       ??_C@_15HPFPGODN@?$AAl?$AAv?$AA?$AA@ 0000000180015180     libucrt:lcidtoname_downlevel.obj
 0002:00004188       ??_C@_15NFFGKGLG@?$AAl?$AAt?$AA?$AA@ 0000000180015188     libucrt:lcidtoname_downlevel.obj
 0002:00004190       ??_C@_15BDAKCCHN@?$AAf?$AAa?$AA?$AA@ 0000000180015190     libucrt:lcidtoname_downlevel.obj
 0002:00004198       ??_C@_15NFGIAIAJ@?$AAv?$AAi?$AA?$AA@ 0000000180015198     libucrt:lcidtoname_downlevel.obj
 0002:000041a0       ??_C@_15LMKNDMHN@?$AAh?$AAy?$AA?$AA@ 00000001800151a0     libucrt:lcidtoname_downlevel.obj
 0002:000041a8       ??_C@_15IJBHMCFL@?$AAa?$AAz?$AA?$AA@ 00000001800151a8     libucrt:lcidtoname_downlevel.obj
 0002:000041b0       ??_C@_15EKOFJABL@?$AAe?$AAu?$AA?$AA@ 00000001800151b0     libucrt:lcidtoname_downlevel.obj
 0002:000041b8       ??_C@_15BGHADCNK@?$AAm?$AAk?$AA?$AA@ 00000001800151b8     libucrt:lcidtoname_downlevel.obj
 0002:000041c0       ??_C@_15JDNICKHM@?$AAa?$AAf?$AA?$AA@ 00000001800151c0     libucrt:lcidtoname_downlevel.obj
 0002:000041c8       ??_C@_15KPJEDBKD@?$AAk?$AAa?$AA?$AA@ 00000001800151c8     libucrt:lcidtoname_downlevel.obj
 0002:000041d0       ??_C@_15PDNFFFEO@?$AAf?$AAo?$AA?$AA@ 00000001800151d0     libucrt:lcidtoname_downlevel.obj
 0002:000041d8       ??_C@_15OMLEGLOC@?$AAh?$AAi?$AA?$AA@ 00000001800151d8     libucrt:lcidtoname_downlevel.obj
 0002:000041e0       ??_C@_15IDNNENKK@?$AAm?$AAs?$AA?$AA@ 00000001800151e0     libucrt:lcidtoname_downlevel.obj
 0002:000041e8       ??_C@_15MACJNBMH@?$AAk?$AAk?$AA?$AA@ 00000001800151e8     libucrt:lcidtoname_downlevel.obj
 0002:000041f0       ??_C@_15DKDJEOND@?$AAk?$AAy?$AA?$AA@ 00000001800151f0     libucrt:lcidtoname_downlevel.obj
 0002:000041f8       ??_C@_15DFGDLJBG@?$AAs?$AAw?$AA?$AA@ 00000001800151f8     libucrt:lcidtoname_downlevel.obj
 0002:00004200       ??_C@_15BBFAICNG@?$AAu?$AAz?$AA?$AA@ 0000000180015200     libucrt:lcidtoname_downlevel.obj
 0002:00004208       ??_C@_15DKNDCGEA@?$AAt?$AAt?$AA?$AA@ 0000000180015208     libucrt:lcidtoname_downlevel.obj
 0002:00004210       ??_C@_15MGIFMDPL@?$AAp?$AAa?$AA?$AA@ 0000000180015210     libucrt:lcidtoname_downlevel.obj
 0002:00004218       ??_C@_15HCNDBBA@?$AAg?$AAu?$AA?$AA@ 0000000180015218     libucrt:lcidtoname_downlevel.obj
 0002:00004220       ??_C@_15FNBEIBON@?$AAt?$AAa?$AA?$AA@ 0000000180015220     libucrt:lcidtoname_downlevel.obj
 0002:00004228       ??_C@_15NCHGBGLK@?$AAt?$AAe?$AA?$AA@ 0000000180015228     libucrt:lcidtoname_downlevel.obj
 0002:00004230       ??_C@_15PHPHCBPF@?$AAk?$AAn?$AA?$AA@ 0000000180015230     libucrt:lcidtoname_downlevel.obj
 0002:00004238       ??_C@_15DLGBCKMP@?$AAm?$AAr?$AA?$AA@ 0000000180015238     libucrt:lcidtoname_downlevel.obj
 0002:00004240       ??_C@_15EABBLBFF@?$AAs?$AAa?$AA?$AA@ 0000000180015240     libucrt:lcidtoname_downlevel.obj
 0002:00004248       ??_C@_15CBKOMCOI@?$AAm?$AAn?$AA?$AA@ 0000000180015248     libucrt:lcidtoname_downlevel.obj
 0002:00004250       ??_C@_15CKDMCJAF@?$AAg?$AAl?$AA?$AA@ 0000000180015250     libucrt:lcidtoname_downlevel.obj
 0002:00004258       ??_C@_17CNJFBPG@?$AAk?$AAo?$AAk?$AA?$AA@ 0000000180015258     libucrt:lcidtoname_downlevel.obj
 0002:00004260       ??_C@_17FFBJICPL@?$AAs?$AAy?$AAr?$AA?$AA@ 0000000180015260     libucrt:lcidtoname_downlevel.obj
 0002:00004268       ??_C@_17KPNDCPAF@?$AAd?$AAi?$AAv?$AA?$AA@ 0000000180015268     libucrt:lcidtoname_downlevel.obj
 0002:00004270       ??_C@_1M@OKAHONE@?$AAa?$AAr?$AA?9?$AAS?$AAA?$AA?$AA@ 0000000180015270     libucrt:lcidtoname_downlevel.obj
 0002:00004280       ??_C@_1M@FFFIGIGK@?$AAb?$AAg?$AA?9?$AAB?$AAG?$AA?$AA@ 0000000180015280     libucrt:lcidtoname_downlevel.obj
 0002:00004290       ??_C@_1M@BJNKEDC@?$AAc?$AAa?$AA?9?$AAE?$AAS?$AA?$AA@ 0000000180015290     libucrt:lcidtoname_downlevel.obj
 0002:000042a0       ??_C@_1M@IJJHFJHA@?$AAc?$AAs?$AA?9?$AAC?$AAZ?$AA?$AA@ 00000001800152a0     libucrt:lcidtoname_downlevel.obj
 0002:000042b0       ??_C@_1M@CLPEOBGI@?$AAd?$AAa?$AA?9?$AAD?$AAK?$AA?$AA@ 00000001800152b0     libucrt:lcidtoname_downlevel.obj
 0002:000042c0       ??_C@_1M@MCMADGCB@?$AAd?$AAe?$AA?9?$AAD?$AAE?$AA?$AA@ 00000001800152c0     libucrt:lcidtoname_downlevel.obj
 0002:000042d0       ??_C@_1M@OOCKEMAM@?$AAe?$AAl?$AA?9?$AAG?$AAR?$AA?$AA@ 00000001800152d0     libucrt:lcidtoname_downlevel.obj
 0002:000042e0       ??_C@_1M@DDNJFGID@?$AAf?$AAi?$AA?9?$AAF?$AAI?$AA?$AA@ 00000001800152e0     libucrt:lcidtoname_downlevel.obj
 0002:000042f0       ??_C@_1M@GLIPPMAC@?$AAf?$AAr?$AA?9?$AAF?$AAR?$AA?$AA@ 00000001800152f0     libucrt:lcidtoname_downlevel.obj
 0002:00004300       ??_C@_1M@GFMCHPE@?$AAh?$AAe?$AA?9?$AAI?$AAL?$AA?$AA@ 0000000180015300     libucrt:lcidtoname_downlevel.obj
 0002:00004310       ??_C@_1M@MHLPGNKM@?$AAh?$AAu?$AA?9?$AAH?$AAU?$AA?$AA@ 0000000180015310     libucrt:lcidtoname_downlevel.obj
 0002:00004320       ??_C@_1M@LPDDNNPN@?$AAi?$AAs?$AA?9?$AAI?$AAS?$AA?$AA@ 0000000180015320     libucrt:lcidtoname_downlevel.obj
 0002:00004330       ??_C@_1M@MADIPODN@?$AAi?$AAt?$AA?9?$AAI?$AAT?$AA?$AA@ 0000000180015330     libucrt:lcidtoname_downlevel.obj
 0002:00004340       ??_C@_1M@IHBJJGG@?$AAn?$AAl?$AA?9?$AAN?$AAL?$AA?$AA@ 0000000180015340     libucrt:lcidtoname_downlevel.obj
 0002:00004350       ??_C@_1M@EANAGDL@?$AAn?$AAb?$AA?9?$AAN?$AAO?$AA?$AA@ 0000000180015350     libucrt:lcidtoname_downlevel.obj
 0002:00004360       ??_C@_1M@NEIEMEGP@?$AAp?$AAl?$AA?9?$AAP?$AAL?$AA?$AA@ 0000000180015360     libucrt:lcidtoname_downlevel.obj
 0002:00004370       ??_C@_1M@BOCFIGEP@?$AAp?$AAt?$AA?9?$AAB?$AAR?$AA?$AA@ 0000000180015370     libucrt:lcidtoname_downlevel.obj
 0002:00004380       ??_C@_1M@IMPFOPBG@?$AAr?$AAo?$AA?9?$AAR?$AAO?$AA?$AA@ 0000000180015380     libucrt:lcidtoname_downlevel.obj
 0002:00004390       ??_C@_1M@IDNNEJMM@?$AAr?$AAu?$AA?9?$AAR?$AAU?$AA?$AA@ 0000000180015390     libucrt:lcidtoname_downlevel.obj
 0002:000043a0       ??_C@_1M@LILEEOGM@?$AAh?$AAr?$AA?9?$AAH?$AAR?$AA?$AA@ 00000001800153a0     libucrt:lcidtoname_downlevel.obj
 0002:000043b0       ??_C@_1M@FKIFEHPB@?$AAs?$AAk?$AA?9?$AAS?$AAK?$AA?$AA@ 00000001800153b0     libucrt:lcidtoname_downlevel.obj
 0002:000043c0       ??_C@_1M@LJMAMNPJ@?$AAs?$AAq?$AA?9?$AAA?$AAL?$AA?$AA@ 00000001800153c0     libucrt:lcidtoname_downlevel.obj
 0002:000043d0       ??_C@_1M@GIAKDKJK@?$AAs?$AAv?$AA?9?$AAS?$AAE?$AA?$AA@ 00000001800153d0     libucrt:lcidtoname_downlevel.obj
 0002:000043e0       ??_C@_1M@MKJKIKCL@?$AAt?$AAh?$AA?9?$AAT?$AAH?$AA?$AA@ 00000001800153e0     libucrt:lcidtoname_downlevel.obj
 0002:000043f0       ??_C@_1M@MFLCCMPB@?$AAt?$AAr?$AA?9?$AAT?$AAR?$AA?$AA@ 00000001800153f0     libucrt:lcidtoname_downlevel.obj
 0002:00004400       ??_C@_1M@OIJHDKJN@?$AAu?$AAr?$AA?9?$AAP?$AAK?$AA?$AA@ 0000000180015400     libucrt:lcidtoname_downlevel.obj
 0002:00004410       ??_C@_1M@LHIPCIEK@?$AAi?$AAd?$AA?9?$AAI?$AAD?$AA?$AA@ 0000000180015410     libucrt:lcidtoname_downlevel.obj
 0002:00004420       ??_C@_1M@MFMOBGI@?$AAu?$AAk?$AA?9?$AAU?$AAA?$AA?$AA@ 0000000180015420     libucrt:lcidtoname_downlevel.obj
 0002:00004430       ??_C@_1M@OBGLJIPL@?$AAb?$AAe?$AA?9?$AAB?$AAY?$AA?$AA@ 0000000180015430     libucrt:lcidtoname_downlevel.obj
 0002:00004440       ??_C@_1M@BCFAJEAD@?$AAs?$AAl?$AA?9?$AAS?$AAI?$AA?$AA@ 0000000180015440     libucrt:lcidtoname_downlevel.obj
 0002:00004450       ??_C@_1M@FKFFEDDN@?$AAe?$AAt?$AA?9?$AAE?$AAE?$AA?$AA@ 0000000180015450     libucrt:lcidtoname_downlevel.obj
 0002:00004460       ??_C@_1M@KGKKAACI@?$AAl?$AAv?$AA?9?$AAL?$AAV?$AA?$AA@ 0000000180015460     libucrt:lcidtoname_downlevel.obj
 0002:00004470       ??_C@_1M@IFGBIJO@?$AAl?$AAt?$AA?9?$AAL?$AAT?$AA?$AA@ 0000000180015470     libucrt:lcidtoname_downlevel.obj
 0002:00004480       ??_C@_1M@FGEAHEDM@?$AAf?$AAa?$AA?9?$AAI?$AAR?$AA?$AA@ 0000000180015480     libucrt:lcidtoname_downlevel.obj
 0002:00004490       ??_C@_1M@KBMAIBFN@?$AAv?$AAi?$AA?9?$AAV?$AAN?$AA?$AA@ 0000000180015490     libucrt:lcidtoname_downlevel.obj
 0002:000044a0       ??_C@_1M@GPCBKDJK@?$AAh?$AAy?$AA?9?$AAA?$AAM?$AA?$AA@ 00000001800154a0     libucrt:lcidtoname_downlevel.obj
 0002:000044b0       ??_C@_1BG@BECMDDJB@?$AAa?$AAz?$AA?9?$AAA?$AAZ?$AA?9?$AAL?$AAa?$AAt?$AAn?$AA?$AA@ 00000001800154b0     libucrt:lcidtoname_downlevel.obj
 0002:000044c8       ??_C@_1M@MAOFCAEA@?$AAe?$AAu?$AA?9?$AAE?$AAS?$AA?$AA@ 00000001800154c8     libucrt:lcidtoname_downlevel.obj
 0002:000044d8       ??_C@_1M@IGHABKPI@?$AAm?$AAk?$AA?9?$AAM?$AAK?$AA?$AA@ 00000001800154d8     libucrt:lcidtoname_downlevel.obj
 0002:000044e8       ??_C@_1M@IAIGNEJG@?$AAt?$AAn?$AA?9?$AAZ?$AAA?$AA?$AA@ 00000001800154e8     libucrt:lcidtoname_downlevel.obj
 0002:000044f8       ??_C@_1M@IIJCOJFA@?$AAx?$AAh?$AA?9?$AAZ?$AAA?$AA?$AA@ 00000001800154f8     libucrt:lcidtoname_downlevel.obj
 0002:00004508       ??_C@_1M@LGPJHNJH@?$AAz?$AAu?$AA?9?$AAZ?$AAA?$AA?$AA@ 0000000180015508     libucrt:lcidtoname_downlevel.obj
 0002:00004518       ??_C@_1M@HOKAOIO@?$AAa?$AAf?$AA?9?$AAZ?$AAA?$AA?$AA@ 0000000180015518     libucrt:lcidtoname_downlevel.obj
 0002:00004528       ??_C@_1M@DPCLHLIE@?$AAk?$AAa?$AA?9?$AAG?$AAE?$AA?$AA@ 0000000180015528     libucrt:lcidtoname_downlevel.obj
 0002:00004538       ??_C@_1M@BLKMHJBI@?$AAf?$AAo?$AA?9?$AAF?$AAO?$AA?$AA@ 0000000180015538     libucrt:lcidtoname_downlevel.obj
 0002:00004548       ??_C@_1M@LGGJAPPB@?$AAh?$AAi?$AA?9?$AAI?$AAN?$AA?$AA@ 0000000180015548     libucrt:lcidtoname_downlevel.obj
 0002:00004558       ??_C@_1M@FIKPIHFE@?$AAm?$AAt?$AA?9?$AAM?$AAT?$AA?$AA@ 0000000180015558     libucrt:lcidtoname_downlevel.obj
 0002:00004568       ??_C@_1M@HEGGPBFA@?$AAs?$AAe?$AA?9?$AAN?$AAO?$AA?$AA@ 0000000180015568     libucrt:lcidtoname_downlevel.obj
 0002:00004578       ??_C@_1M@EIBJEEPA@?$AAm?$AAs?$AA?9?$AAM?$AAY?$AA?$AA@ 0000000180015578     libucrt:lcidtoname_downlevel.obj
 0002:00004588       ??_C@_1M@FHLBGMPP@?$AAk?$AAk?$AA?9?$AAK?$AAZ?$AA?$AA@ 0000000180015588     libucrt:lcidtoname_downlevel.obj
 0002:00004598       ??_C@_1M@NGJJLCGI@?$AAk?$AAy?$AA?9?$AAK?$AAG?$AA?$AA@ 0000000180015598     libucrt:lcidtoname_downlevel.obj
 0002:000045a8       ??_C@_1M@GIENNBFC@?$AAs?$AAw?$AA?9?$AAK?$AAE?$AA?$AA@ 00000001800155a8     libucrt:lcidtoname_downlevel.obj
 0002:000045b8       ??_C@_1BG@NDGMJIMJ@?$AAu?$AAz?$AA?9?$AAU?$AAZ?$AA?9?$AAL?$AAa?$AAt?$AAn?$AA?$AA@ 00000001800155b8     libucrt:lcidtoname_downlevel.obj
 0002:000045d0       ??_C@_1M@IDCCIHBC@?$AAt?$AAt?$AA?9?$AAR?$AAU?$AA?$AA@ 00000001800155d0     libucrt:lcidtoname_downlevel.obj
 0002:000045e0       ??_C@_1M@LOICPMOJ@?$AAb?$AAn?$AA?9?$AAI?$AAN?$AA?$AA@ 00000001800155e0     libucrt:lcidtoname_downlevel.obj
 0002:000045f0       ??_C@_1M@KPKKNEAH@?$AAp?$AAa?$AA?9?$AAI?$AAN?$AA?$AA@ 00000001800155f0     libucrt:lcidtoname_downlevel.obj
 0002:00004600       ??_C@_1M@PJGPPBOG@?$AAg?$AAu?$AA?9?$AAI?$AAN?$AA?$AA@ 0000000180015600     libucrt:lcidtoname_downlevel.obj
 0002:00004610       ??_C@_1M@KMKMOPHI@?$AAt?$AAa?$AA?9?$AAI?$AAN?$AA?$AA@ 0000000180015610     libucrt:lcidtoname_downlevel.obj
 0002:00004620       ??_C@_1M@KFEHEPAC@?$AAt?$AAe?$AA?9?$AAI?$AAN?$AA?$AA@ 0000000180015620     libucrt:lcidtoname_downlevel.obj
 0002:00004630       ??_C@_1M@CDCLMGHI@?$AAk?$AAn?$AA?9?$AAI?$AAN?$AA?$AA@ 0000000180015630     libucrt:lcidtoname_downlevel.obj
 0002:00004640       ??_C@_1M@MIODLDKF@?$AAm?$AAl?$AA?9?$AAI?$AAN?$AA?$AA@ 0000000180015640     libucrt:lcidtoname_downlevel.obj
 0002:00004650       ??_C@_1M@PBIEACPO@?$AAm?$AAr?$AA?9?$AAI?$AAN?$AA?$AA@ 0000000180015650     libucrt:lcidtoname_downlevel.obj
 0002:00004660       ??_C@_1M@NIDEAGPH@?$AAs?$AAa?$AA?9?$AAI?$AAN?$AA?$AA@ 0000000180015660     libucrt:lcidtoname_downlevel.obj
 0002:00004670       ??_C@_1M@FHIHCBIO@?$AAm?$AAn?$AA?9?$AAM?$AAN?$AA?$AA@ 0000000180015670     libucrt:lcidtoname_downlevel.obj
 0002:00004680       ??_C@_1M@JAIJPENP@?$AAc?$AAy?$AA?9?$AAG?$AAB?$AA?$AA@ 0000000180015680     libucrt:lcidtoname_downlevel.obj
 0002:00004690       ??_C@_1M@PHGFBEPN@?$AAg?$AAl?$AA?9?$AAE?$AAS?$AA?$AA@ 0000000180015690     libucrt:lcidtoname_downlevel.obj
 0002:000046a0       ??_C@_1O@KPIPDNCP@?$AAk?$AAo?$AAk?$AA?9?$AAI?$AAN?$AA?$AA@ 00000001800156a0     libucrt:lcidtoname_downlevel.obj
 0002:000046b0       ??_C@_1O@KNHJLDJA@?$AAs?$AAy?$AAr?$AA?9?$AAS?$AAY?$AA?$AA@ 00000001800156b0     libucrt:lcidtoname_downlevel.obj
 0002:000046c0       ??_C@_1O@MKEKBLAH@?$AAd?$AAi?$AAv?$AA?9?$AAM?$AAV?$AA?$AA@ 00000001800156c0     libucrt:lcidtoname_downlevel.obj
 0002:000046d0       ??_C@_1O@OHDCKDDF@?$AAq?$AAu?$AAz?$AA?9?$AAB?$AAO?$AA?$AA@ 00000001800156d0     libucrt:lcidtoname_downlevel.obj
 0002:000046e0       ??_C@_1M@LEPJNLFD@?$AAn?$AAs?$AA?9?$AAZ?$AAA?$AA?$AA@ 00000001800156e0     libucrt:lcidtoname_downlevel.obj
 0002:000046f0       ??_C@_1M@OMLEIIJB@?$AAm?$AAi?$AA?9?$AAN?$AAZ?$AA?$AA@ 00000001800156f0     libucrt:lcidtoname_downlevel.obj
 0002:00004700       ??_C@_1M@PMPEAILG@?$AAa?$AAr?$AA?9?$AAI?$AAQ?$AA?$AA@ 0000000180015700     libucrt:lcidtoname_downlevel.obj
 0002:00004710       ??_C@_1M@CNKPNOEE@?$AAd?$AAe?$AA?9?$AAC?$AAH?$AA?$AA@ 0000000180015710     libucrt:lcidtoname_downlevel.obj
 0002:00004720       ??_C@_1M@LKMGMLKO@?$AAe?$AAn?$AA?9?$AAG?$AAB?$AA?$AA@ 0000000180015720     libucrt:lcidtoname_downlevel.obj
 0002:00004730       ??_C@_1M@PGKJFFGL@?$AAe?$AAs?$AA?9?$AAM?$AAX?$AA?$AA@ 0000000180015730     libucrt:lcidtoname_downlevel.obj
 0002:00004740       ??_C@_1M@DNNANBDC@?$AAf?$AAr?$AA?9?$AAB?$AAE?$AA?$AA@ 0000000180015740     libucrt:lcidtoname_downlevel.obj
 0002:00004750       ??_C@_1M@HLGMDFHM@?$AAi?$AAt?$AA?9?$AAC?$AAH?$AA?$AA@ 0000000180015750     libucrt:lcidtoname_downlevel.obj
 0002:00004760       ??_C@_1M@CLLBGJH@?$AAn?$AAl?$AA?9?$AAB?$AAE?$AA?$AA@ 0000000180015760     libucrt:lcidtoname_downlevel.obj
 0002:00004770       ??_C@_1M@BODBOGLF@?$AAn?$AAn?$AA?9?$AAN?$AAO?$AA?$AA@ 0000000180015770     libucrt:lcidtoname_downlevel.obj
 0002:00004780       ??_C@_1M@HFFAHKAD@?$AAp?$AAt?$AA?9?$AAP?$AAT?$AA?$AA@ 0000000180015780     libucrt:lcidtoname_downlevel.obj
 0002:00004790       ??_C@_1BG@LNOAKHIE@?$AAs?$AAr?$AA?9?$AAS?$AAP?$AA?9?$AAL?$AAa?$AAt?$AAn?$AA?$AA@ 0000000180015790     libucrt:lcidtoname_downlevel.obj
 0002:000047a8       ??_C@_1M@HBMHBGAK@?$AAs?$AAv?$AA?9?$AAF?$AAI?$AA?$AA@ 00000001800157a8     libucrt:lcidtoname_downlevel.obj
 0002:000047b8       ??_C@_1BG@DGCJGJBE@?$AAa?$AAz?$AA?9?$AAA?$AAZ?$AA?9?$AAC?$AAy?$AAr?$AAl?$AA?$AA@ 00000001800157b8     libucrt:lcidtoname_downlevel.obj
 0002:000047d0       ??_C@_1M@KEJDAAHB@?$AAs?$AAe?$AA?9?$AAS?$AAE?$AA?$AA@ 00000001800157d0     libucrt:lcidtoname_downlevel.obj
 0002:000047e0       ??_C@_1M@HEIBJJAD@?$AAm?$AAs?$AA?9?$AAB?$AAN?$AA?$AA@ 00000001800157e0     libucrt:lcidtoname_downlevel.obj
 0002:000047f0       ??_C@_1BG@PBGJMCEM@?$AAu?$AAz?$AA?9?$AAU?$AAZ?$AA?9?$AAC?$AAy?$AAr?$AAl?$AA?$AA@ 00000001800157f0     libucrt:lcidtoname_downlevel.obj
 0002:00004808       ??_C@_1O@LAOBCMDF@?$AAq?$AAu?$AAz?$AA?9?$AAE?$AAC?$AA?$AA@ 0000000180015808     libucrt:lcidtoname_downlevel.obj
 0002:00004818       ??_C@_1M@POEEMAIO@?$AAa?$AAr?$AA?9?$AAE?$AAG?$AA?$AA@ 0000000180015818     libucrt:lcidtoname_downlevel.obj
 0002:00004828       ??_C@_1M@EFAKDEDL@?$AAz?$AAh?$AA?9?$AAH?$AAK?$AA?$AA@ 0000000180015828     libucrt:lcidtoname_downlevel.obj
 0002:00004838       ??_C@_1M@HKKIJHGI@?$AAd?$AAe?$AA?9?$AAA?$AAT?$AA?$AA@ 0000000180015838     libucrt:lcidtoname_downlevel.obj
 0002:00004848       ??_C@_1M@KBFBEHJF@?$AAe?$AAn?$AA?9?$AAA?$AAU?$AA?$AA@ 0000000180015848     libucrt:lcidtoname_downlevel.obj
 0002:00004858       ??_C@_1M@MNPLFAAH@?$AAe?$AAs?$AA?9?$AAE?$AAS?$AA?$AA@ 0000000180015858     libucrt:lcidtoname_downlevel.obj
 0002:00004868       ??_C@_1M@HJOOJFMA@?$AAf?$AAr?$AA?9?$AAC?$AAA?$AA?$AA@ 0000000180015868     libucrt:lcidtoname_downlevel.obj
 0002:00004878       ??_C@_1BG@JPOFPNAB@?$AAs?$AAr?$AA?9?$AAS?$AAP?$AA?9?$AAC?$AAy?$AAr?$AAl?$AA?$AA@ 0000000180015878     libucrt:lcidtoname_downlevel.obj
 0002:00004890       ??_C@_1M@LNFOCMOB@?$AAs?$AAe?$AA?9?$AAF?$AAI?$AA?$AA@ 0000000180015890     libucrt:lcidtoname_downlevel.obj
 0002:000048a0       ??_C@_1O@MGJBOAMB@?$AAq?$AAu?$AAz?$AA?9?$AAP?$AAE?$AA?$AA@ 00000001800158a0     libucrt:lcidtoname_downlevel.obj
 0002:000048b0       ??_C@_1M@GJINLBOK@?$AAa?$AAr?$AA?9?$AAL?$AAY?$AA?$AA@ 00000001800158b0     libucrt:lcidtoname_downlevel.obj
 0002:000048c0       ??_C@_1M@GGMNHJNL@?$AAz?$AAh?$AA?9?$AAS?$AAG?$AA?$AA@ 00000001800158c0     libucrt:lcidtoname_downlevel.obj
 0002:000048d0       ??_C@_1M@HOIKODND@?$AAd?$AAe?$AA?9?$AAL?$AAU?$AA?$AA@ 00000001800158d0     libucrt:lcidtoname_downlevel.obj
 0002:000048e0       ??_C@_1M@DDOCCGFG@?$AAe?$AAn?$AA?9?$AAC?$AAA?$AA?$AA@ 00000001800158e0     libucrt:lcidtoname_downlevel.obj
 0002:000048f0       ??_C@_1M@BNOEMJLF@?$AAe?$AAs?$AA?9?$AAG?$AAT?$AA?$AA@ 00000001800158f0     libucrt:lcidtoname_downlevel.obj
 0002:00004900       ??_C@_1M@EOGNKEK@?$AAf?$AAr?$AA?9?$AAC?$AAH?$AA?$AA@ 0000000180015900     libucrt:lcidtoname_downlevel.obj
 0002:00004910       ??_C@_1M@FLIDJFHL@?$AAh?$AAr?$AA?9?$AAB?$AAA?$AA?$AA@ 0000000180015910     libucrt:lcidtoname_downlevel.obj
 0002:00004920       ??_C@_1O@FMCELNAJ@?$AAs?$AAm?$AAj?$AA?9?$AAN?$AAO?$AA?$AA@ 0000000180015920     libucrt:lcidtoname_downlevel.obj
 0002:00004930       ??_C@_1M@JHGLJMGJ@?$AAa?$AAr?$AA?9?$AAD?$AAZ?$AA?$AA@ 0000000180015930     libucrt:lcidtoname_downlevel.obj
 0002:00004940       ??_C@_1M@JKKFDCNP@?$AAz?$AAh?$AA?9?$AAM?$AAO?$AA?$AA@ 0000000180015940     libucrt:lcidtoname_downlevel.obj
 0002:00004950       ??_C@_1M@GEEFALPE@?$AAd?$AAe?$AA?9?$AAL?$AAI?$AA?$AA@ 0000000180015950     libucrt:lcidtoname_downlevel.obj
 0002:00004960       ??_C@_1M@IGEOFBG@?$AAe?$AAn?$AA?9?$AAN?$AAZ?$AA?$AA@ 0000000180015960     libucrt:lcidtoname_downlevel.obj
 0002:00004970       ??_C@_1M@KDBONEHP@?$AAe?$AAs?$AA?9?$AAC?$AAR?$AA?$AA@ 0000000180015970     libucrt:lcidtoname_downlevel.obj
 0002:00004980       ??_C@_1M@FHMDOHNN@?$AAf?$AAr?$AA?9?$AAL?$AAU?$AA?$AA@ 0000000180015980     libucrt:lcidtoname_downlevel.obj
 0002:00004990       ??_C@_1BG@NFKKMAFG@?$AAb?$AAs?$AA?9?$AAB?$AAA?$AA?9?$AAL?$AAa?$AAt?$AAn?$AA?$AA@ 0000000180015990     libucrt:lcidtoname_downlevel.obj
 0002:000049a8       ??_C@_1O@IMNBEMCI@?$AAs?$AAm?$AAj?$AA?9?$AAS?$AAE?$AA?$AA@ 00000001800159a8     libucrt:lcidtoname_downlevel.obj
 0002:000049b8       ??_C@_1M@DHHMBNDP@?$AAa?$AAr?$AA?9?$AAM?$AAA?$AA?$AA@ 00000001800159b8     libucrt:lcidtoname_downlevel.obj
 0002:000049c8       ??_C@_1M@BNBLJCGH@?$AAe?$AAn?$AA?9?$AAI?$AAE?$AA?$AA@ 00000001800159c8     libucrt:lcidtoname_downlevel.obj
 0002:000049d8       ??_C@_1M@GEPAFMDL@?$AAe?$AAs?$AA?9?$AAP?$AAA?$AA?$AA@ 00000001800159d8     libucrt:lcidtoname_downlevel.obj
 0002:000049e8       ??_C@_1M@OJONDMDL@?$AAf?$AAr?$AA?9?$AAM?$AAC?$AA?$AA@ 00000001800159e8     libucrt:lcidtoname_downlevel.obj
 0002:000049f8       ??_C@_1BG@OBCNFJB@?$AAs?$AAr?$AA?9?$AAB?$AAA?$AA?9?$AAL?$AAa?$AAt?$AAn?$AA?$AA@ 00000001800159f8     libucrt:lcidtoname_downlevel.obj
 0002:00004a10       ??_C@_1O@KEMEEGPO@?$AAs?$AAm?$AAa?$AA?9?$AAN?$AAO?$AA?$AA@ 0000000180015a10     libucrt:lcidtoname_downlevel.obj
 0002:00004a20       ??_C@_1M@ELMGFODK@?$AAa?$AAr?$AA?9?$AAT?$AAN?$AA?$AA@ 0000000180015a20     libucrt:lcidtoname_downlevel.obj
 0002:00004a30       ??_C@_1M@BHDLHFAF@?$AAe?$AAn?$AA?9?$AAZ?$AAA?$AA?$AA@ 0000000180015a30     libucrt:lcidtoname_downlevel.obj
 0002:00004a40       ??_C@_1M@BMGIGLIF@?$AAe?$AAs?$AA?9?$AAD?$AAO?$AA?$AA@ 0000000180015a40     libucrt:lcidtoname_downlevel.obj
 0002:00004a50       ??_C@_1BG@CMBHIPBE@?$AAs?$AAr?$AA?9?$AAB?$AAA?$AA?9?$AAC?$AAy?$AAr?$AAl?$AA?$AA@ 0000000180015a50     libucrt:lcidtoname_downlevel.obj
 0002:00004a68       ??_C@_1O@HEDBLHNP@?$AAs?$AAm?$AAa?$AA?9?$AAS?$AAE?$AA?$AA@ 0000000180015a68     libucrt:lcidtoname_downlevel.obj
 0002:00004a78       ??_C@_1M@DAGCADIM@?$AAa?$AAr?$AA?9?$AAO?$AAM?$AA?$AA@ 0000000180015a78     libucrt:lcidtoname_downlevel.obj
 0002:00004a88       ??_C@_1M@FODLMICG@?$AAe?$AAn?$AA?9?$AAJ?$AAM?$AA?$AA@ 0000000180015a88     libucrt:lcidtoname_downlevel.obj
 0002:00004a98       ??_C@_1M@DNMLCIHB@?$AAe?$AAs?$AA?9?$AAV?$AAE?$AA?$AA@ 0000000180015a98     libucrt:lcidtoname_downlevel.obj
 0002:00004aa8       ??_C@_1O@EOKHMKJK@?$AAs?$AAm?$AAs?$AA?9?$AAF?$AAI?$AA?$AA@ 0000000180015aa8     libucrt:lcidtoname_downlevel.obj
 0002:00004ab8       ??_C@_1M@CAFJMKOF@?$AAa?$AAr?$AA?9?$AAY?$AAE?$AA?$AA@ 0000000180015ab8     libucrt:lcidtoname_downlevel.obj
 0002:00004ac8       ??_C@_1M@CBFHIJLI@?$AAe?$AAn?$AA?9?$AAC?$AAB?$AA?$AA@ 0000000180015ac8     libucrt:lcidtoname_downlevel.obj
 0002:00004ad8       ??_C@_1M@BGNFLDN@?$AAe?$AAs?$AA?9?$AAC?$AAO?$AA?$AA@ 0000000180015ad8     libucrt:lcidtoname_downlevel.obj
 0002:00004ae8       ??_C@_1O@JMPHMAMC@?$AAs?$AAm?$AAn?$AA?9?$AAF?$AAI?$AA?$AA@ 0000000180015ae8     libucrt:lcidtoname_downlevel.obj
 0002:00004af8       ??_C@_1M@JLANABKE@?$AAa?$AAr?$AA?9?$AAS?$AAY?$AA?$AA@ 0000000180015af8     libucrt:lcidtoname_downlevel.obj
 0002:00004b08       ??_C@_1M@HPKGCFGN@?$AAe?$AAn?$AA?9?$AAB?$AAZ?$AA?$AA@ 0000000180015b08     libucrt:lcidtoname_downlevel.obj
 0002:00004b18       ??_C@_1M@OLJCMLGM@?$AAe?$AAs?$AA?9?$AAP?$AAE?$AA?$AA@ 0000000180015b18     libucrt:lcidtoname_downlevel.obj
 0002:00004b28       ??_C@_1M@MKKGFKLE@?$AAa?$AAr?$AA?9?$AAJ?$AAO?$AA?$AA@ 0000000180015b28     libucrt:lcidtoname_downlevel.obj
 0002:00004b38       ??_C@_1M@EKPGLDNI@?$AAe?$AAn?$AA?9?$AAT?$AAT?$AA?$AA@ 0000000180015b38     libucrt:lcidtoname_downlevel.obj
 0002:00004b48       ??_C@_1M@OONGHFHE@?$AAe?$AAs?$AA?9?$AAA?$AAR?$AA?$AA@ 0000000180015b48     libucrt:lcidtoname_downlevel.obj
 0002:00004b58       ??_C@_1M@OOJFGBHE@?$AAa?$AAr?$AA?9?$AAL?$AAB?$AA?$AA@ 0000000180015b58     libucrt:lcidtoname_downlevel.obj
 0002:00004b68       ??_C@_1M@GCEJHNEG@?$AAe?$AAn?$AA?9?$AAZ?$AAW?$AA?$AA@ 0000000180015b68     libucrt:lcidtoname_downlevel.obj
 0002:00004b78       ??_C@_1M@JNOCAHJI@?$AAe?$AAs?$AA?9?$AAE?$AAC?$AA?$AA@ 0000000180015b78     libucrt:lcidtoname_downlevel.obj
 0002:00004b88       ??_C@_1M@JEFHPGGB@?$AAa?$AAr?$AA?9?$AAK?$AAW?$AA?$AA@ 0000000180015b88     libucrt:lcidtoname_downlevel.obj
 0002:00004b98       ??_C@_1M@MLKIBJOJ@?$AAe?$AAn?$AA?9?$AAP?$AAH?$AA?$AA@ 0000000180015b98     libucrt:lcidtoname_downlevel.obj
 0002:00004ba8       ??_C@_1M@BDNIPEND@?$AAe?$AAs?$AA?9?$AAC?$AAL?$AA?$AA@ 0000000180015ba8     libucrt:lcidtoname_downlevel.obj
 0002:00004bb8       ??_C@_1M@MPNMEKBD@?$AAa?$AAr?$AA?9?$AAA?$AAE?$AA?$AA@ 0000000180015bb8     libucrt:lcidtoname_downlevel.obj
 0002:00004bc8       ??_C@_1M@KBJALCPI@?$AAe?$AAs?$AA?9?$AAU?$AAY?$AA?$AA@ 0000000180015bc8     libucrt:lcidtoname_downlevel.obj
 0002:00004bd8       ??_C@_1M@LLCCOAGA@?$AAa?$AAr?$AA?9?$AAB?$AAH?$AA?$AA@ 0000000180015bd8     libucrt:lcidtoname_downlevel.obj
 0002:00004be8       ??_C@_1M@PBFNCDEL@?$AAe?$AAs?$AA?9?$AAP?$AAY?$AA?$AA@ 0000000180015be8     libucrt:lcidtoname_downlevel.obj
 0002:00004bf8       ??_C@_1M@EDGINPNP@?$AAa?$AAr?$AA?9?$AAQ?$AAA?$AA?$AA@ 0000000180015bf8     libucrt:lcidtoname_downlevel.obj
 0002:00004c08       ??_C@_1M@MKDBIIJI@?$AAe?$AAs?$AA?9?$AAB?$AAO?$AA?$AA@ 0000000180015c08     libucrt:lcidtoname_downlevel.obj
 0002:00004c18       ??_C@_1M@CPKKEBLD@?$AAe?$AAs?$AA?9?$AAS?$AAV?$AA?$AA@ 0000000180015c18     libucrt:lcidtoname_downlevel.obj
 0002:00004c28       ??_C@_1M@NDBGMMJL@?$AAe?$AAs?$AA?9?$AAH?$AAN?$AA?$AA@ 0000000180015c28     libucrt:lcidtoname_downlevel.obj
 0002:00004c38       ??_C@_1M@JIJIBHDP@?$AAe?$AAs?$AA?9?$AAN?$AAI?$AA?$AA@ 0000000180015c38     libucrt:lcidtoname_downlevel.obj
 0002:00004c48       ??_C@_1M@CGFMKEEK@?$AAe?$AAs?$AA?9?$AAP?$AAR?$AA?$AA@ 0000000180015c48     libucrt:lcidtoname_downlevel.obj
 0002:00004c58       ??_C@_1O@ICJHKIIK@?$AAz?$AAh?$AA?9?$AAC?$AAH?$AAT?$AA?$AA@ 0000000180015c58     libucrt:lcidtoname_downlevel.obj
 0002:00004c68       ??_C@_15CLNEJCE@?$AAs?$AAr?$AA?$AA@ 0000000180015c68     libucrt:lcidtoname_downlevel.obj
 0002:00005ab0       ??_C@_1M@KAHEKEIG@?$AAa?$AAf?$AA?9?$AAz?$AAa?$AA?$AA@ 0000000180016ab0     libucrt:lcidtoname_downlevel.obj
 0002:00005ac0       ??_C@_1M@GIECOABL@?$AAa?$AAr?$AA?9?$AAa?$AAe?$AA?$AA@ 0000000180016ac0     libucrt:lcidtoname_downlevel.obj
 0002:00005ad0       ??_C@_1M@BMLMEKGI@?$AAa?$AAr?$AA?9?$AAb?$AAh?$AA?$AA@ 0000000180016ad0     libucrt:lcidtoname_downlevel.obj
 0002:00005ae0       ??_C@_1M@DAPFDGGB@?$AAa?$AAr?$AA?9?$AAd?$AAz?$AA?$AA@ 0000000180016ae0     libucrt:lcidtoname_downlevel.obj
 0002:00005af0       ??_C@_1M@FJNKGKIG@?$AAa?$AAr?$AA?9?$AAe?$AAg?$AA?$AA@ 0000000180016af0     libucrt:lcidtoname_downlevel.obj
 0002:00005b00       ??_C@_1M@FLGKKCLO@?$AAa?$AAr?$AA?9?$AAi?$AAq?$AA?$AA@ 0000000180016b00     libucrt:lcidtoname_downlevel.obj
 0002:00005b10       ??_C@_1M@GNDIPALM@?$AAa?$AAr?$AA?9?$AAj?$AAo?$AA?$AA@ 0000000180016b10     libucrt:lcidtoname_downlevel.obj
 0002:00005b20       ??_C@_1M@DDMJFMGJ@?$AAa?$AAr?$AA?9?$AAk?$AAw?$AA?$AA@ 0000000180016b20     libucrt:lcidtoname_downlevel.obj
 0002:00005b30       ??_C@_1M@EJALMLHM@?$AAa?$AAr?$AA?9?$AAl?$AAb?$AA?$AA@ 0000000180016b30     libucrt:lcidtoname_downlevel.obj
 0002:00005b40       ??_C@_1M@MOBDBLOC@?$AAa?$AAr?$AA?9?$AAl?$AAy?$AA?$AA@ 0000000180016b40     libucrt:lcidtoname_downlevel.obj
 0002:00005b50       ??_C@_1M@JAOCLHDH@?$AAa?$AAr?$AA?9?$AAm?$AAa?$AA?$AA@ 0000000180016b50     libucrt:lcidtoname_downlevel.obj
 0002:00005b60       ??_C@_1M@JHPMKJIE@?$AAa?$AAr?$AA?9?$AAo?$AAm?$AA?$AA@ 0000000180016b60     libucrt:lcidtoname_downlevel.obj
 0002:00005b70       ??_C@_1M@OEPGHFNH@?$AAa?$AAr?$AA?9?$AAq?$AAa?$AA?$AA@ 0000000180016b70     libucrt:lcidtoname_downlevel.obj
 0002:00005b80       ??_C@_1M@KJDONENM@?$AAa?$AAr?$AA?9?$AAs?$AAa?$AA?$AA@ 0000000180016b80     libucrt:lcidtoname_downlevel.obj
 0002:00005b90       ??_C@_1M@DMJDKLKM@?$AAa?$AAr?$AA?9?$AAs?$AAy?$AA?$AA@ 0000000180016b90     libucrt:lcidtoname_downlevel.obj
 0002:00005ba0       ??_C@_1M@OMFIPEDC@?$AAa?$AAr?$AA?9?$AAt?$AAn?$AA?$AA@ 0000000180016ba0     libucrt:lcidtoname_downlevel.obj
 0002:00005bb0       ??_C@_1M@IHMHGAON@?$AAa?$AAr?$AA?9?$AAy?$AAe?$AA?$AA@ 0000000180016bb0     libucrt:lcidtoname_downlevel.obj
 0002:00005bc0       ??_C@_1BG@KDCPGJGB@?$AAa?$AAz?$AA?9?$AAa?$AAz?$AA?9?$AAc?$AAy?$AAr?$AAl?$AA?$AA@ 0000000180016bc0     libucrt:lcidtoname_downlevel.obj
 0002:00005bd8       ??_C@_1BG@IBCKDDOE@?$AAa?$AAz?$AA?9?$AAa?$AAz?$AA?9?$AAl?$AAa?$AAt?$AAn?$AA?$AA@ 0000000180016bd8     libucrt:lcidtoname_downlevel.obj
 0002:00005bf0       ??_C@_1M@EGPFDCPD@?$AAb?$AAe?$AA?9?$AAb?$AAy?$AA?$AA@ 0000000180016bf0     libucrt:lcidtoname_downlevel.obj
 0002:00005c00       ??_C@_1M@PCMGMCGC@?$AAb?$AAg?$AA?9?$AAb?$AAg?$AA?$AA@ 0000000180016c00     libucrt:lcidtoname_downlevel.obj
 0002:00005c10       ??_C@_1M@BJBMFGOB@?$AAb?$AAn?$AA?9?$AAi?$AAn?$AA?$AA@ 0000000180016c10     libucrt:lcidtoname_downlevel.obj
 0002:00005c20       ??_C@_1BG@EAKMMACD@?$AAb?$AAs?$AA?9?$AAb?$AAa?$AA?9?$AAl?$AAa?$AAt?$AAn?$AA?$AA@ 0000000180016c20     libucrt:lcidtoname_downlevel.obj
 0002:00005c38       ??_C@_1M@KGADAODK@?$AAc?$AAa?$AA?9?$AAe?$AAs?$AA?$AA@ 0000000180016c38     libucrt:lcidtoname_downlevel.obj
 0002:00005c48       ??_C@_1M@COAJPDHI@?$AAc?$AAs?$AA?9?$AAc?$AAz?$AA?$AA@ 0000000180016c48     libucrt:lcidtoname_downlevel.obj
 0002:00005c58       ??_C@_1M@DHBHFONH@?$AAc?$AAy?$AA?9?$AAg?$AAb?$AA?$AA@ 0000000180016c58     libucrt:lcidtoname_downlevel.obj
 0002:00005c68       ??_C@_1M@IMGKELGA@?$AAd?$AAa?$AA?9?$AAd?$AAk?$AA?$AA@ 0000000180016c68     libucrt:lcidtoname_downlevel.obj
 0002:00005c78       ??_C@_1M@NNDGDNGA@?$AAd?$AAe?$AA?9?$AAa?$AAt?$AA?$AA@ 0000000180016c78     libucrt:lcidtoname_downlevel.obj
 0002:00005c88       ??_C@_1M@IKDBHEEM@?$AAd?$AAe?$AA?9?$AAc?$AAh?$AA?$AA@ 0000000180016c88     libucrt:lcidtoname_downlevel.obj
 0002:00005c98       ??_C@_1M@GFFOJMCJ@?$AAd?$AAe?$AA?9?$AAd?$AAe?$AA?$AA@ 0000000180016c98     libucrt:lcidtoname_downlevel.obj
 0002:00005ca8       ??_C@_1M@MDNLKBPM@?$AAd?$AAe?$AA?9?$AAl?$AAi?$AA?$AA@ 0000000180016ca8     libucrt:lcidtoname_downlevel.obj
 0002:00005cb8       ??_C@_1M@NJBEEJNL@?$AAd?$AAe?$AA?9?$AAl?$AAu?$AA?$AA@ 0000000180016cb8     libucrt:lcidtoname_downlevel.obj
 0002:00005cc8       ??_C@_1O@GNNELBAP@?$AAd?$AAi?$AAv?$AA?9?$AAm?$AAv?$AA?$AA@ 0000000180016cc8     libucrt:lcidtoname_downlevel.obj
 0002:00005cd8       ??_C@_1M@EJLEOGAE@?$AAe?$AAl?$AA?9?$AAg?$AAr?$AA?$AA@ 0000000180016cd8     libucrt:lcidtoname_downlevel.obj
 0002:00005ce8       ??_C@_1M@GMPONJN@?$AAe?$AAn?$AA?9?$AAa?$AAu?$AA?$AA@ 0000000180016ce8     libucrt:lcidtoname_downlevel.obj
 0002:00005cf8       ??_C@_1M@NIDIIPGF@?$AAe?$AAn?$AA?9?$AAb?$AAz?$AA?$AA@ 0000000180016cf8     libucrt:lcidtoname_downlevel.obj
 0002:00005d08       ??_C@_1M@JEHMIMFO@?$AAe?$AAn?$AA?9?$AAc?$AAa?$AA?$AA@ 0000000180016d08     libucrt:lcidtoname_downlevel.obj
 0002:00005d18       ??_C@_1M@IGMJCDLA@?$AAe?$AAn?$AA?9?$AAc?$AAb?$AA?$AA@ 0000000180016d18     libucrt:lcidtoname_downlevel.obj
 0002:00005d28       ??_C@_1M@BNFIGBKG@?$AAe?$AAn?$AA?9?$AAg?$AAb?$AA?$AA@ 0000000180016d28     libucrt:lcidtoname_downlevel.obj
 0002:00005d38       ??_C@_1M@LKIFDIGP@?$AAe?$AAn?$AA?9?$AAi?$AAe?$AA?$AA@ 0000000180016d38     libucrt:lcidtoname_downlevel.obj
 0002:00005d48       ??_C@_1M@PJKFGCCO@?$AAe?$AAn?$AA?9?$AAj?$AAm?$AA?$AA@ 0000000180016d48     libucrt:lcidtoname_downlevel.obj
 0002:00005d58       ??_C@_1M@KPPKEPBO@?$AAe?$AAn?$AA?9?$AAn?$AAz?$AA?$AA@ 0000000180016d58     libucrt:lcidtoname_downlevel.obj
 0002:00005d68       ??_C@_1M@GMDGLDOB@?$AAe?$AAn?$AA?9?$AAp?$AAh?$AA?$AA@ 0000000180016d68     libucrt:lcidtoname_downlevel.obj
 0002:00005d78       ??_C@_1M@ONGIBJNA@?$AAe?$AAn?$AA?9?$AAt?$AAt?$AA?$AA@ 0000000180016d78     libucrt:lcidtoname_downlevel.obj
 0002:00005d88       ??_C@_1M@LLODPCMM@?$AAe?$AAn?$AA?9?$AAu?$AAs?$AA?$AA@ 0000000180016d88     libucrt:lcidtoname_downlevel.obj
 0002:00005d98       ??_C@_1M@LAKFNPAN@?$AAe?$AAn?$AA?9?$AAz?$AAa?$AA?$AA@ 0000000180016d98     libucrt:lcidtoname_downlevel.obj
 0002:00005da8       ??_C@_1M@MFNHNHEO@?$AAe?$AAn?$AA?9?$AAz?$AAw?$AA?$AA@ 0000000180016da8     libucrt:lcidtoname_downlevel.obj
 0002:00005db8       ??_C@_1M@EJEINPHM@?$AAe?$AAs?$AA?9?$AAa?$AAr?$AA?$AA@ 0000000180016db8     libucrt:lcidtoname_downlevel.obj
 0002:00005dc8       ??_C@_1M@GNKPCCJA@?$AAe?$AAs?$AA?9?$AAb?$AAo?$AA?$AA@ 0000000180016dc8     libucrt:lcidtoname_downlevel.obj
 0002:00005dd8       ??_C@_1M@LEEGFONL@?$AAe?$AAs?$AA?9?$AAc?$AAl?$AA?$AA@ 0000000180016dd8     libucrt:lcidtoname_downlevel.obj
 0002:00005de8       ??_C@_1M@KGPDPBDF@?$AAe?$AAs?$AA?9?$AAc?$AAo?$AA?$AA@ 0000000180016de8     libucrt:lcidtoname_downlevel.obj
 0002:00005df8       ??_C@_1M@EIAHOHH@?$AAe?$AAs?$AA?9?$AAc?$AAr?$AA?$AA@ 0000000180016df8     libucrt:lcidtoname_downlevel.obj
 0002:00005e08       ??_C@_1M@LLPGMBIN@?$AAe?$AAs?$AA?9?$AAd?$AAo?$AA?$AA@ 0000000180016e08     libucrt:lcidtoname_downlevel.obj
 0002:00005e18       ??_C@_1M@DKHMKNJA@?$AAe?$AAs?$AA?9?$AAe?$AAc?$AA?$AA@ 0000000180016e18     libucrt:lcidtoname_downlevel.obj
 0002:00005e28       ??_C@_1M@GKGFPKAP@?$AAe?$AAs?$AA?9?$AAe?$AAs?$AA?$AA@ 0000000180016e28     libucrt:lcidtoname_downlevel.obj
 0002:00005e38       ??_C@_1M@LKHKGDLN@?$AAe?$AAs?$AA?9?$AAg?$AAt?$AA?$AA@ 0000000180016e38     libucrt:lcidtoname_downlevel.obj
 0002:00005e48       ??_C@_1M@HEIIGGJD@?$AAe?$AAs?$AA?9?$AAh?$AAn?$AA?$AA@ 0000000180016e48     libucrt:lcidtoname_downlevel.obj
 0002:00005e58       ??_C@_1M@FBDHPPGD@?$AAe?$AAs?$AA?9?$AAm?$AAx?$AA?$AA@ 0000000180016e58     libucrt:lcidtoname_downlevel.obj
 0002:00005e68       ??_C@_1M@DPAGLNDH@?$AAe?$AAs?$AA?9?$AAn?$AAi?$AA?$AA@ 0000000180016e68     libucrt:lcidtoname_downlevel.obj
 0002:00005e78       ??_C@_1M@MDGOPGDD@?$AAe?$AAs?$AA?9?$AAp?$AAa?$AA?$AA@ 0000000180016e78     libucrt:lcidtoname_downlevel.obj
 0002:00005e88       ??_C@_1M@EMAMGBGE@?$AAe?$AAs?$AA?9?$AAp?$AAe?$AA?$AA@ 0000000180016e88     libucrt:lcidtoname_downlevel.obj
 0002:00005e98       ??_C@_1M@IBMCAOEC@?$AAe?$AAs?$AA?9?$AAp?$AAr?$AA?$AA@ 0000000180016e98     libucrt:lcidtoname_downlevel.obj
 0002:00005ea8       ??_C@_1M@FGMDIJED@?$AAe?$AAs?$AA?9?$AAp?$AAy?$AA?$AA@ 0000000180016ea8     libucrt:lcidtoname_downlevel.obj
 0002:00005eb8       ??_C@_1M@IIDEOLLL@?$AAe?$AAs?$AA?9?$AAs?$AAv?$AA?$AA@ 0000000180016eb8     libucrt:lcidtoname_downlevel.obj
 0002:00005ec8       ??_C@_1M@GAOBIPA@?$AAe?$AAs?$AA?9?$AAu?$AAy?$AA?$AA@ 0000000180016ec8     libucrt:lcidtoname_downlevel.obj
 0002:00005ed8       ??_C@_1M@JKFFICHJ@?$AAe?$AAs?$AA?9?$AAv?$AAe?$AA?$AA@ 0000000180016ed8     libucrt:lcidtoname_downlevel.obj
 0002:00005ee8       ??_C@_1M@PNMLOJDF@?$AAe?$AAt?$AA?9?$AAe?$AAe?$AA?$AA@ 0000000180016ee8     libucrt:lcidtoname_downlevel.obj
 0002:00005ef8       ??_C@_1M@GHHLIKEI@?$AAe?$AAu?$AA?9?$AAe?$AAs?$AA?$AA@ 0000000180016ef8     libucrt:lcidtoname_downlevel.obj
 0002:00005f08       ??_C@_1M@PBNONODE@?$AAf?$AAa?$AA?9?$AAi?$AAr?$AA?$AA@ 0000000180016f08     libucrt:lcidtoname_downlevel.obj
 0002:00005f18       ??_C@_1M@JEEHPMIL@?$AAf?$AAi?$AA?9?$AAf?$AAi?$AA?$AA@ 0000000180016f18     libucrt:lcidtoname_downlevel.obj
 0002:00005f28       ??_C@_1M@LMDCNDBA@?$AAf?$AAo?$AA?9?$AAf?$AAo?$AA?$AA@ 0000000180016f28     libucrt:lcidtoname_downlevel.obj
 0002:00005f38       ??_C@_1M@JKEOHLDK@?$AAf?$AAr?$AA?9?$AAb?$AAe?$AA?$AA@ 0000000180016f38     libucrt:lcidtoname_downlevel.obj
 0002:00005f48       ??_C@_1M@NOHADPMI@?$AAf?$AAr?$AA?9?$AAc?$AAa?$AA?$AA@ 0000000180016f48     libucrt:lcidtoname_downlevel.obj
 0002:00005f58       ??_C@_1M@KDHIHAEC@?$AAf?$AAr?$AA?9?$AAc?$AAh?$AA?$AA@ 0000000180016f58     libucrt:lcidtoname_downlevel.obj
 0002:00005f68       ??_C@_1M@MMBBFGAK@?$AAf?$AAr?$AA?9?$AAf?$AAr?$AA?$AA@ 0000000180016f68     libucrt:lcidtoname_downlevel.obj
 0002:00005f78       ??_C@_1M@PAFNENNF@?$AAf?$AAr?$AA?9?$AAl?$AAu?$AA?$AA@ 0000000180016f78     libucrt:lcidtoname_downlevel.obj
 0002:00005f88       ??_C@_1M@EOHDJGDD@?$AAf?$AAr?$AA?9?$AAm?$AAc?$AA?$AA@ 0000000180016f88     libucrt:lcidtoname_downlevel.obj
 0002:00005f98       ??_C@_1M@FAPLLOPF@?$AAg?$AAl?$AA?9?$AAe?$AAs?$AA?$AA@ 0000000180016f98     libucrt:lcidtoname_downlevel.obj
 0002:00005fa8       ??_C@_1M@FOPBFLOO@?$AAg?$AAu?$AA?9?$AAi?$AAn?$AA?$AA@ 0000000180016fa8     libucrt:lcidtoname_downlevel.obj
 0002:00005fb8       ??_C@_1M@KBMCINPM@?$AAh?$AAe?$AA?9?$AAi?$AAl?$AA?$AA@ 0000000180016fb8     libucrt:lcidtoname_downlevel.obj
 0002:00005fc8       ??_C@_1M@BBPHKFPJ@?$AAh?$AAi?$AA?9?$AAi?$AAn?$AA?$AA@ 0000000180016fc8     libucrt:lcidtoname_downlevel.obj
 0002:00005fd8       ??_C@_1M@PMBNDPHD@?$AAh?$AAr?$AA?9?$AAb?$AAa?$AA?$AA@ 0000000180016fd8     libucrt:lcidtoname_downlevel.obj
 0002:00005fe8       ??_C@_1M@BPCKOEGE@?$AAh?$AAr?$AA?9?$AAh?$AAr?$AA?$AA@ 0000000180016fe8     libucrt:lcidtoname_downlevel.obj
 0002:00005ff8       ??_C@_1M@GACBMHKE@?$AAh?$AAu?$AA?9?$AAh?$AAu?$AA?$AA@ 0000000180016ff8     libucrt:lcidtoname_downlevel.obj
 0002:00006260       __log10_256_lead           0000000180017260     libucrt:log10_256_lead_tail_table.obj
 0002:00006a70       __log10_256_tail           0000000180017a70     libucrt:log10_256_lead_tail_table.obj
 0002:00007280       __log_F_inv_qword          0000000180018280     libucrt:log_f_inv_qword_table.obj
 0002:00007a90       ??_C@_05HGHHAHAP@log10?$AA@ 0000000180018a90     libucrt:log_special.obj
 0002:00007a98       ??_C@_1BA@BALFACEM@?$AAC?$AAO?$AAN?$AAO?$AAU?$AAT?$AA$?$AA?$AA@ 0000000180018a98     libucrt:initcon.obj
 0002:00007af0       _load_config_used          0000000180018af0     LIBCMT:loadcfg.obj
 0002:00007e30       __rtc_iaa                  0000000180018e30     LIBCMT:_initsect_.obj
 0002:00007e38       __rtc_izz                  0000000180018e38     LIBCMT:_initsect_.obj
 0002:00007e40       __rtc_taa                  0000000180018e40     LIBCMT:_initsect_.obj
 0002:00007e48       __rtc_tzz                  0000000180018e48     LIBCMT:_initsect_.obj
 0002:00008bc0       __IMPORT_DESCRIPTOR_KERNEL32 0000000180019bc0     kernel32:KERNEL32.dll
 0002:00008bd4       __IMPORT_DESCRIPTOR_USER32 0000000180019bd4     user32:USER32.dll
 0002:00008be8       __IMPORT_DESCRIPTOR_GDI32  0000000180019be8     gdi32:GDI32.dll
 0002:00008bfc       __IMPORT_DESCRIPTOR_ADVAPI32 0000000180019bfc     advapi32:ADVAPI32.dll
 0002:00008c10       __IMPORT_DESCRIPTOR_VERSION 0000000180019c10     version:VERSION.dll
 0002:00008c24       __NULL_IMPORT_DESCRIPTOR   0000000180019c24     kernel32:KERNEL32.dll
 0003:00000000       ?g_TerminatedThreadIdx@@3JA 000000018001b000     WThreads.obj
 0003:00000010       ?gbLinesColorPanel@@3HA    000000018001b010     ConEmuLn.obj
 0003:00000014       ?gcrLinesColorPanel@@3KA   000000018001b014     ConEmuLn.obj
 0003:00000018       ?gcrLinesColorEditor@@3KA  000000018001b018     ConEmuLn.obj
 0003:0000001c       ?gcrLinesColorViewer@@3KA  000000018001b01c     ConEmuLn.obj
 0003:00000020       ?gcrHilightPlugBack@@3KA   000000018001b020     ConEmuLn.obj
 0003:00000030       ?gSettings@@3PAUConEmuLnSettings@@A 000000018001b030     ConEmuLn.obj
 0003:00000140       ?Far3Func@@3PAUExportFunc@@A 000000018001b140     ConEmuLn.obj
 0003:00000188       ?guid_ConEmuLn@@3U_GUID@@A 000000018001b188     ConEmuLn2800.obj
 0003:00000198       ?guid_ConEmuLnCfgDlg@@3U_GUID@@A 000000018001b198     ConEmuLn2800.obj
 0003:000001a8       ?guid_ConEmuLnPluginMenu@@3U_GUID@@A 000000018001b1a8     ConEmuLn2800.obj
 0003:000001b8       ?guid_ConEmuLnPluginConfig@@3U_GUID@@A 000000018001b1b8     ConEmuLn2800.obj
 0003:000001d0       __scrt_native_dllmain_reason 000000018001b1d0     LIBCMT:utility.obj
 0003:000001d8       __isa_available            000000018001b1d8     LIBCMT:_cpu_disp_.obj
 0003:000001dc       __isa_enabled              000000018001b1dc     LIBCMT:_cpu_disp_.obj
 0003:000001e0       __memcpy_nt_iters          000000018001b1e0     LIBCMT:_cpu_disp_.obj
 0003:000001e8       __security_cookie          000000018001b1e8     LIBCMT:gs_cookie.obj
 0003:000001f0       __security_cookie_complement 000000018001b1f0     LIBCMT:gs_cookie.obj
 0003:00000204       __abort_behavior           000000018001b204     libucrt:abort.obj
 0003:00000210       _pwctype                   000000018001b210     libucrt:ctype.obj
 0003:00000220       __acrt_initial_locale_data 000000018001b220     libucrt:nlsdata.obj
 0003:00000378       __acrt_initial_locale_pointers 000000018001b378     libucrt:nlsdata.obj
 0003:00000388       __acrt_wide_c_locale_string 000000018001b388     libucrt:nlsdata.obj
 0003:00000390       __acrt_initial_multibyte_data 000000018001b390     libucrt:mbctype.obj
 0003:000008d0       _iob                       000000018001b8d0     libucrt:_file.obj
 0003:000009d8       __globallocalestatus       000000018001b9d8     libucrt:glstatus.obj
 0003:000009e0       __acrt_lconv_c             000000018001b9e0     libucrt:localeconv.obj
 0003:00000a78       __acrt_lconv_static_decimal 000000018001ba78     libucrt:localeconv.obj
 0003:00000a7c       __acrt_lconv_static_W_decimal 000000018001ba7c     libucrt:localeconv.obj
 0003:00000a80       __dcrt_lowio_console_output_handle 000000018001ba80     libucrt:initcon.obj
 0003:00000aa0       _fltused                   000000018001baa0     LIBCMT:fltused.obj
 0003:00000ab0       ?g_ThreadsIdx@@3JA         000000018001bab0     WThreads.obj
 0003:000092c0       ?ghPluginModule@@3PEAUHINSTANCE__@@EA 00000001800242c0     ConEmuLn.obj
 0003:000092c8       ?gFarVersion@@3UFarVersion@@A 00000001800242c8     ConEmuLn.obj
 0003:000092d4       ?gbBackgroundEnabled@@3HA  00000001800242d4     ConEmuLn.obj
 0003:000092d8       ?gbLinesColorEditor@@3HA   00000001800242d8     ConEmuLn.obj
 0003:000092dc       ?gbLinesColorViewer@@3HA   00000001800242dc     ConEmuLn.obj
 0003:000092e0       ?giHilightType@@3HA        00000001800242e0     ConEmuLn.obj
 0003:000092e4       ?gbHilightPlugins@@3HA     00000001800242e4     ConEmuLn.obj
 0003:000092f0       ?gbInStartPlugin@@3_NA     00000001800242f0     ConEmuLn.obj
 0003:000092f1       ?gbSetStartupInfoOk@@3_NA  00000001800242f1     ConEmuLn.obj
 0003:000092f4       ?gbInfoW_OK@@3HA           00000001800242f4     ConEmuLn.obj
 0003:00009300       ?InfoW995@@3PEAUPluginStartupInfo@@EA 0000000180024300     ConEmuLn995.obj
 0003:00009308       ?FSFW995@@3PEAUFarStandardFunctions@@EA 0000000180024308     ConEmuLn995.obj
 0003:00009520       ?InfoW1900@@3PEAUPluginStartupInfo@@EA 0000000180024520     ConEmuLn1900.obj
 0003:00009528       ?FSFW1900@@3PEAUFarStandardFunctions@@EA 0000000180024528     ConEmuLn1900.obj
 0003:00009740       ?InfoW2800@@3PEAUPluginStartupInfo@@EA 0000000180024740     ConEmuLn2800.obj
 0003:00009748       ?FSFW2800@@3PEAUFarStandardFunctions@@EA 0000000180024748     ConEmuLn2800.obj
 0003:00009960       ?InfoA@@3PEAUPluginStartupInfo@@EA 0000000180024960     ConEmuLnA.obj
 0003:00009968       ?FSFA@@3PEAUFarStandardFunctions@@EA 0000000180024968     ConEmuLnA.obj
 0003:00009a80       ?AssertMsgBox@@3P6AHPEB_WI0PEAUHWND__@@_N@ZEA 0000000180024a80     MAssert.obj
 0003:00009a88       ?gfnHooksUnlockerProc@@3P6A_N_N@ZEA 0000000180024a88     MAssert.obj
 0003:00009a90       ?ghHeap@@3PEAXEA           0000000180024a90     Memory.obj
 0003:00009a98       ?g_LastDeletePtr@@3PEAXEA  0000000180024a98     Memory.obj
 0003:00009aa8       __scrt_current_native_startup_state 0000000180024aa8     LIBCMT:utility.obj
 0003:00009ab0       __scrt_native_startup_lock 0000000180024ab0     LIBCMT:utility.obj
 0003:00009af0       ?__type_info_root_node@@3U__type_info_node@@A 0000000180024af0     LIBCMT:tncleanup.obj
 0003:00009b00       ?_OptionsStorage@?1??__local_stdio_printf_options@@9@4_KA 0000000180024b00     LIBCMT:default_local_stdio_options.obj
 0003:00009b08       ?_OptionsStorage@?1??__local_stdio_scanf_options@@9@4_KA 0000000180024b08     LIBCMT:default_local_stdio_options.obj
 0003:00009b10       __scrt_debugger_hook_flag  0000000180024b10     LIBCMT:utility_desktop.obj
 0003:00009b14       __favor                    0000000180024b14     LIBCMT:_cpu_disp_.obj
 0003:00009c38       __pPurecall                0000000180024c38     libvcruntime:purevirt_data.obj
 0003:00009c40       ?pArgList@UnDecorator@@0PEAVReplicator@@EA 0000000180024c40     libvcruntime:undname.obj
 0003:00009c48       ?pZNameList@UnDecorator@@0PEAVReplicator@@EA 0000000180024c48     libvcruntime:undname.obj
 0003:00009c50       ?pTemplateArgList@UnDecorator@@0PEAVReplicator@@EA 0000000180024c50     libvcruntime:undname.obj
 0003:00009c58       ?gName@UnDecorator@@0PEBDEB 0000000180024c58     libvcruntime:undname.obj
 0003:00009c60       ?name@UnDecorator@@0PEBDEB 0000000180024c60     libvcruntime:undname.obj
 0003:00009c68       ?outputString@UnDecorator@@0PEADEA 0000000180024c68     libvcruntime:undname.obj
 0003:00009c70       ?maxStringLength@UnDecorator@@0HA 0000000180024c70     libvcruntime:undname.obj
 0003:00009c74       ?disableFlags@UnDecorator@@0KA 0000000180024c74     libvcruntime:undname.obj
 0003:00009c78       ?fExplicitTemplateParams@UnDecorator@@0_NA 0000000180024c78     libvcruntime:undname.obj
 0003:00009c79       ?fGetTemplateArgumentList@UnDecorator@@0_NA 0000000180024c79     libvcruntime:undname.obj
 0003:00009c80       ?m_pGetParameter@UnDecorator@@0P6APEADJ@ZEA 0000000180024c80     libvcruntime:undname.obj
 0003:00009dd8       _environ_table             0000000180024dd8     libucrt:environment_initialization.obj
 0003:00009de0       _wenviron_table            0000000180024de0     libucrt:environment_initialization.obj
 0003:00009de8       __dcrt_initial_wide_environment 0000000180024de8     libucrt:environment_initialization.obj
 0003:00009df0       __dcrt_initial_narrow_environment 0000000180024df0     libucrt:environment_initialization.obj
 0003:00009df8       __acrt_atexit_table        0000000180024df8     libucrt:onexit.obj
 0003:00009e10       __acrt_at_quick_exit_table 0000000180024e10     libucrt:onexit.obj
 0003:00009e30       __acrt_locale_changed_data 0000000180024e30     libucrt:wsetlocale.obj
 0003:00009e38       __acrt_current_locale_data 0000000180024e38     libucrt:nlsdata.obj
 0003:0000a1f0       __acrt_current_multibyte_data 00000001800251f0     libucrt:mbctype.obj
 0003:0000a1f8       _mbctype                   00000001800251f8     libucrt:mbctype.obj
 0003:0000a200       _mbcasemap                 0000000180025200     libucrt:mbctype.obj
 0003:0000a210       __argc                     0000000180025210     libucrt:argv_data.obj
 0003:0000a218       __argv                     0000000180025218     libucrt:argv_data.obj
 0003:0000a220       __wargv                    0000000180025220     libucrt:argv_data.obj
 0003:0000a228       _acmdln                    0000000180025228     libucrt:argv_data.obj
 0003:0000a230       _wcmdln                    0000000180025230     libucrt:argv_data.obj
 0003:0000a238       _pgmptr                    0000000180025238     libucrt:argv_data.obj
 0003:0000a240       __acrt_heap                0000000180025240     libucrt:heap_handle.obj
 0003:0000a250       __pioinfo                  0000000180025250     libucrt:ioinit.obj
 0003:0000a650       _nhandle                   0000000180025650     libucrt:ioinit.obj
 0003:0000a688       __acrt_stdout_buffer       0000000180025688     libucrt:_sftbuf.obj
 0003:0000a690       __acrt_stderr_buffer       0000000180025690     libucrt:_sftbuf.obj
 0003:0000a6a0       _nstream                   00000001800256a0     libucrt:_file.obj
 0003:0000a6a8       __piob                     00000001800256a8     libucrt:_file.obj
 0003:0000a6b0       __acrt_lconv_static_null   00000001800256b0     libucrt:localeconv.obj
 0003:0000a6b4       __acrt_lconv_static_W_null 00000001800256b4     libucrt:localeconv.obj
 0003:0000a6bc       __fma3_is_available        00000001800256bc     libucrt:fma3_available.obj
 0003:0000a6c0       __use_fma3_lib             00000001800256c0     libucrt:fma3_available.obj
 0003:0000ac40       __scrt_ucrt_dll_is_in_use  0000000180025c40     <common>
 0003:0000ac48       __dyn_tls_init_callback    0000000180025c48     <common>
 0003:0000ac50       _pDestructExceptionObject  0000000180025c50     <common>

 entry point at        0001:00004c90

 Static symbols

 0001:000000a8       ?ChangeExports@@YA_NPEBUExportFunc@@PEAUHINSTANCE__@@@Z 00000001800010a8 f   ConEmuLn.obj
 0001:000003dc       ?LoadModuleVersion@@YA_NPEB_WAEAUtagVS_FIXEDFILEINFO@@PEA_W_K@Z 00000001800013dc f   ConEmuLn.obj
 0001:00001084       ?ConfigDlgProc@@YA_JPEAXHH_J@Z 0000000180002084 f   ConEmuLn995.obj
 0001:000011d0       ?ConfigureProc@@YAHH@Z     00000001800021d0 f   ConEmuLn995.obj
 0001:00001ca8       ?ConfigDlgProc@@YA_JPEAXHH0@Z 0000000180002ca8 f   ConEmuLn1900.obj
 0001:00001df4       ?ConfigureProc@@YAHH@Z     0000000180002df4 f   ConEmuLn1900.obj
 0001:00002b28       ?ConfigDlgProc@@YA_JPEAX_J10@Z 0000000180003b28 f   ConEmuLn2800.obj
 0001:00002c7c       ?ConfigureProc@@YAHH@Z     0000000180003c7c f   ConEmuLn2800.obj
 0001:00003b30       ?ConfigDlgProc@@YA_JPEAXHH_J@Z 0000000180004b30 f   ConEmuLnA.obj
 0001:00003c7c       ?ConfigureProc@@YAHH@Z     0000000180004c7c f   ConEmuLnA.obj
 0001:000048e0       $$000000                   00000001800058e0     LIBCMT:_chkstk_.obj
 0001:00004944       ?dllmain_crt_dispatch@@YAHQEAUHINSTANCE__@@KQEAX@Z 0000000180005944 f   LIBCMT:dll_dllmain.obj
 0001:00004994       ?dllmain_crt_process_attach@@YAHQEAUHINSTANCE__@@QEAX@Z 0000000180005994 f   LIBCMT:dll_dllmain.obj
 0001:00004ac0       ?dllmain_crt_process_detach@@YAH_N@Z 0000000180005ac0 f   LIBCMT:dll_dllmain.obj
 0001:00004b44       ?dllmain_dispatch@@YAHQEAUHINSTANCE__@@KQEAX@Z 0000000180005b44 f   LIBCMT:dll_dllmain.obj
 0001:00004c3c       ?dllmain_raw@@YAHQEAUHINSTANCE__@@KQEAX@Z 0000000180005c3c f   LIBCMT:dll_dllmain.obj
 0001:00005780       $$000000                   0000000180006780     libvcruntime:memcpy.obj
 0001:00005827       MoveSmall                  0000000180006827     libvcruntime:memcpy.obj
 0001:00005bd0       $$000000                   0000000180006bd0     libvcruntime:memset.obj
 0001:00005cbc       MsetTab                    0000000180006cbc     libvcruntime:memset.obj
 0001:00005e40       $$000000                   0000000180006e40     libvcruntime:_jmpuwind_.obj
 0001:000060c0       ?try_get_function@@YAPEAXW4function_id@?A0x679b24ab@@QEBDQEBW4module_id@2@2@Z 00000001800070c0 f   libvcruntime:winapi_downlevel.obj
 0001:00007294       ?atexit_exception_filter@@YAHK@Z 0000000180008294 f   libucrt:exit.obj
 0001:000072a0       ?common_exit@@YAXHW4_crt_exit_cleanup_mode@@W4_crt_exit_return_mode@@@Z 00000001800082a0 f   libucrt:exit.obj
 0001:0000740c       ?exit_or_terminate_process@@YAXI@Z 000000018000840c f   libucrt:exit.obj
 0001:00007458       ?try_cor_exit_process@@YAXI@Z 0000000180008458 f   libucrt:exit.obj
 0001:000074f0       ??$parse_command_line@D@@YAXPEADPEAPEAD0PEA_K2@Z 00000001800084f0 f   libucrt:argv_parsing.obj
 0001:00007888       ??$common_initialize_environment_nolock@D@@YAHXZ 0000000180008888 f   libucrt:environment_initialization.obj
 0001:000078f4       ??$create_environment@D@@YAQEAPEADQEAD@Z 00000001800088f4 f   libucrt:environment_initialization.obj
 0001:000079f0       ??$free_environment@D@@YAXQEAPEAD@Z 00000001800089f0 f   libucrt:environment_initialization.obj
 0001:000079f0       ??$free_environment@_W@@YAXQEAPEA_W@Z 00000001800089f0 f   libucrt:environment_initialization.obj
 0001:00007a34       ??$uninitialize_environment_internal@D@@YAXAEAPEAPEAD@Z 0000000180008a34 f   libucrt:environment_initialization.obj
 0001:00007a50       ??$uninitialize_environment_internal@_W@@YAXAEAPEAPEA_W@Z 0000000180008a50 f   libucrt:environment_initialization.obj
 0001:00007c88       ??R<lambda_4e60a939b0d047cfe11ddc22648dfba9>@@QEBAHXZ 0000000180008c88 f   libucrt:onexit.obj
 0001:00007f38       initialize_global_variables 0000000180008f38 f   libucrt:initialization.obj
 0001:00007f4c       initialize_c               0000000180008f4c f   libucrt:initialization.obj
 0001:00007f70       uninitialize_environment   0000000180008f70 f   libucrt:initialization.obj
 0001:00007f80       initialize_environment     0000000180008f80 f   libucrt:initialization.obj
 0001:00007f80       uninitialize_c             0000000180008f80 f   libucrt:initialization.obj
 0001:00007f80       uninitialize_global_state_isolation 0000000180008f80 f   libucrt:initialization.obj
 0001:00007f80       report_memory_leaks        0000000180008f80 f   libucrt:initialization.obj
 0001:00007f80       initialize_global_state_isolation 0000000180008f80 f   libucrt:initialization.obj
 0001:00007f84       initialize_pointers        0000000180008f84 f   libucrt:initialization.obj
 0001:00007fd8       uninitialize_vcruntime     0000000180008fd8 f   libucrt:initialization.obj
 0001:00007fe0       uninitialize_allocated_memory 0000000180008fe0 f   libucrt:initialization.obj
 0001:00008944       ?construct_ptd_array@@YAXQEAU__acrt_ptd@@@Z 0000000180009944 f   libucrt:per_thread_data.obj
 0001:00008a14       ?destroy_fls@@YAXPEAX@Z    0000000180009a14 f   libucrt:per_thread_data.obj
 0001:00008a34       ?destroy_ptd_array@@YAXQEAU__acrt_ptd@@@Z 0000000180009a34 f   libucrt:per_thread_data.obj
 0001:00008b2c       ?replace_current_thread_locale_nolock@@YAXQEAU__acrt_ptd@@QEAU__crt_locale_data@@@Z 0000000180009b2c f   libucrt:per_thread_data.obj
 0001:00008fac       ?try_get_function@@YAPEAXW4function_id@?A0x391cf84c@@QEBDQEBW4module_id@2@2@Z 0000000180009fac f   libucrt:winapi_thunks.obj
 0001:00009590       ?<helper_func_cdecl>@<lambda_e4fcf3af52c7c9a5453685164d5c5959>@@CAHPEBX0@Z 000000018000a590 f   libucrt:argv_wildcards.obj
 0001:000095a4       ??$common_expand_argv_wildcards@D@@YAHQEAPEADQEAPEAPEAD@Z 000000018000a5a4 f   libucrt:argv_wildcards.obj
 0001:000097b0       ??$copy_and_add_argument_to_buffer@D@@YAHQEBD0_KAEAV?$argument_list@D@?A0x5f5c8891@@@Z 000000018000a7b0 f   libucrt:argv_wildcards.obj
 0001:000098c0       ??$expand_argument_wildcards@D@@YAHQEAD0AEAV?$argument_list@D@?A0x5f5c8891@@@Z 000000018000a8c0 f   libucrt:argv_wildcards.obj
 0001:00009b74       ??R<lambda_2c5d36f8a66580c563e29092409944b2>@@QEBAXXZ 000000018000ab74 f   libucrt:mbctype.obj
 0001:00009d14       ?getSystemCP@@YAHH@Z       000000018000ad14 f   libucrt:mbctype.obj
 0001:00009d94       ?setSBCS@@YAXPEAU__crt_multibyte_data@@@Z 000000018000ad94 f   libucrt:mbctype.obj
 0001:00009e24       ?setSBUpLow@@YAXPEAU__crt_multibyte_data@@@Z 000000018000ae24 f   libucrt:mbctype.obj
 0001:0000a008       ?setmbcp_internal@@YAHH_NQEAU__acrt_ptd@@QEAPEAU__crt_multibyte_data@@@Z 000000018000b008 f   libucrt:mbctype.obj
 0001:0000a1cc       ?update_thread_multibyte_data_internal@@YAPEAU__crt_multibyte_data@@QEAU__acrt_ptd@@QEAU1@@Z 000000018000b1cc f   libucrt:mbctype.obj
 0001:0000a5a8       ?x_ismbbtype_l@@YAHPEAU__crt_locale_pointers@@IHH@Z 000000018000b5a8 f   libucrt:ismbbyte.obj
 0001:0000a828       ?initialize_inherited_file_handles_nolock@@YAXXZ 000000018000b828 f   libucrt:ioinit.obj
 0001:0000a914       ?initialize_stdio_handles_nolock@@YAXXZ 000000018000b914 f   libucrt:ioinit.obj
 0001:0000ba1c       ?free_crt_array_internal@@YAXQEAPEBX_K@Z 000000018000ca1c f   libucrt:inittime.obj
 0001:0000bb7c       ?GetTableIndexFromLocaleName@@YAHPEB_W@Z 000000018000cb7c f   libucrt:lcidtoname_downlevel.obj
 0001:0000bc80       ?shortsort@@YAXPEAD0_KP6AHPEBX2@Z@Z 000000018000cc80 f   libucrt:qsort.obj
 0001:0000c298       ?initialize_multibyte@@YAHXZ 000000018000d298 f   libucrt:multibyte_initializer.obj
 0001:0000c2b0       ?__acrt_LCMapStringA_stat@@YAHPEAU__crt_locale_pointers@@PEB_WKPEBDHPEADHHH@Z 000000018000d2b0 f   libucrt:lcmapstringa.obj
 0001:0000cbb0       common_flush_all           000000018000dbb0 f   libucrt:fflush.obj
 0001:0000cec8       ?write_double_translated_ansi_nolock@@YA?AUwrite_result@?A0x17268360@@HQEBDI@Z 000000018000dec8 f   libucrt:write.obj
 0001:0000d0d0       ?write_text_ansi_nolock@@YA?AUwrite_result@?A0x17268360@@HQEBDI@Z 000000018000e0d0 f   libucrt:write.obj
 0001:0000d1d8       ?write_text_utf16le_nolock@@YA?AUwrite_result@?A0x17268360@@HQEBDI@Z 000000018000e1d8 f   libucrt:write.obj
 0001:0000d2f4       ?write_text_utf8_nolock@@YA?AUwrite_result@?A0x17268360@@HQEBDI@Z 000000018000e2f4 f   libucrt:write.obj
 0001:0000d840       $$000000                   000000018000e840     libucrt:log10.obj
 0001:0000ddec       ??$common_lseek_nolock@_J@@YA_JH_JH@Z 000000018000edec f   libucrt:lseek.obj
 0001:0000dfdc       _call_matherr              000000018000efdc f   libucrt:libm_error.obj
 0001:0000e044       _exception_enabled         000000018000f044 f   libucrt:libm_error.obj
 0001:0000e2c0       _log_special_common        000000018000f2c0 f   libucrt:log_special.obj
 0001:0000e5d0       $$000000                   000000018000f5d0     libucrt:fpsr.obj
 0001:0000ebc0       $$000000                   000000018000fbc0     LIBCMT:_amdsecgs_.obj
 0001:0000edac       capture_current_context    000000018000fdac f   LIBCMT:gs_report.obj
 0001:0000ee1c       capture_previous_context   000000018000fe1c f   LIBCMT:gs_report.obj
 0001:0000ee90       $$000000                   000000018000fe90     libvcruntime:memcmp.obj
 0001:0000ef70       $$000000                   000000018000ff70     LIBCMT:_guard_dispatch_.obj
 0001:0000ef90       ?fin$0@?0??dllmain_crt_process_attach@@YAHQEAUHINSTANCE__@@QEAX@Z@4HA 000000018000ff90 f   LIBCMT:dll_dllmain.obj
 0001:0000efa7       ?fin$0@?0??dllmain_crt_process_detach@@YAH_N@Z@4HA 000000018000ffa7 f   LIBCMT:dll_dllmain.obj
 0001:0000efc3       ?filt$0@?0??dllmain_dispatch@@YAHQEAUHINSTANCE__@@KQEAX@Z@4HA 000000018000ffc3 f   LIBCMT:dll_dllmain.obj
 0001:0000eff9       __scrt_is_nonwritable_in_current_image$filt$0 000000018000fff9 f   LIBCMT:utility.obj
 0001:0000f011       ?filt$0@?0??common_exit@@YAXHW4_crt_exit_cleanup_mode@@W4_crt_exit_return_mode@@@Z@4HA 0000000180010011 f   libucrt:exit.obj
 0001:0000f02c       ?fin$1@?0??common_exit@@YAXHW4_crt_exit_cleanup_mode@@W4_crt_exit_return_mode@@@Z@4HA 000000018001002c f   libucrt:exit.obj
 0001:0000f045       ?fin$0@?0???$?RV<lambda_e24bbb7b643b32fcea6fa61b31d4c984>@@AEAV<lambda_275893d493268fdec8709772e3fcec0e>@@V<lambda_9d71df4d7cf3f480f8d633942495c3b0>@@@?$__crt_seh_guarded_call@H@@QEAAH$$QEAV<lambda_e24bbb7b643b32fcea6fa61b31d4c984>@@AEAV<lambda_275893d493268fdec8709772e3fcec0e>@@$$QEAV<lambda_9d71df4d7cf3f480f8d633942495c3b0>@@@Z@4HA 0000000180010045 f   libucrt:onexit.obj
 0001:0000f062       ?fin$0@?0???$?RV<lambda_b8c45f8f788dd370798f47cfe8ac3a86>@@AEAV<lambda_4e60a939b0d047cfe11ddc22648dfba9>@@V<lambda_332c3edc96d0294ec56c57d38c1cdfd5>@@@?$__crt_seh_guarded_call@H@@QEAAH$$QEAV<lambda_b8c45f8f788dd370798f47cfe8ac3a86>@@AEAV<lambda_4e60a939b0d047cfe11ddc22648dfba9>@@$$QEAV<lambda_332c3edc96d0294ec56c57d38c1cdfd5>@@@Z@4HA 0000000180010062 f   libucrt:onexit.obj
 0001:0000f062       ?fin$0@?0???$?RV<lambda_72d1df2b273a38828b1ce30cbf4cdab5>@@AEAV<lambda_876a65b173b8412d3a47c70a915b0cf4>@@V<lambda_41932305e351933ebe8f8be3ed8bb5dc>@@@?$__crt_seh_guarded_call@X@@QEAAX$$QEAV<lambda_72d1df2b273a38828b1ce30cbf4cdab5>@@AEAV<lambda_876a65b173b8412d3a47c70a915b0cf4>@@$$QEAV<lambda_41932305e351933ebe8f8be3ed8bb5dc>@@@Z@4HA 0000000180010062 f   libucrt:per_thread_data.obj
 0001:0000f062       ?fin$0@?0???$?RV<lambda_c36588078e9f5dfd39652860aa6b3aaf>@@AEAV<lambda_ec61778202f4f5fc7e7711acc23c3bca>@@V<lambda_dc9d2797ccde5d239b4a0efae8ebd7db>@@@?$__crt_seh_guarded_call@P6AXH@Z@@QEAAP6AXH@Z$$QEAV<lambda_c36588078e9f5dfd39652860aa6b3aaf>@@AEAV<lambda_ec61778202f4f5fc7e7711acc23c3bca>@@$$QEAV<lambda_dc9d2797ccde5d239b4a0efae8ebd7db>@@@Z@4HA 0000000180010062 f   libucrt:signal.obj
 0001:0000f062       ?fin$0@?0???$?RV<lambda_efb9b808e93e29b6b799d3875462c817>@@AEAV<lambda_2c5d36f8a66580c563e29092409944b2>@@V<lambda_31e551fca1567ef2425714047646aa90>@@@?$__crt_seh_guarded_call@X@@QEAAX$$QEAV<lambda_efb9b808e93e29b6b799d3875462c817>@@AEAV<lambda_2c5d36f8a66580c563e29092409944b2>@@$$QEAV<lambda_31e551fca1567ef2425714047646aa90>@@@Z@4HA 0000000180010062 f   libucrt:mbctype.obj
 0001:0000f062       ?fin$0@?0???$?RV<lambda_fb3a7dec4e47f37f22dae91bb15c9095>@@AEAV<lambda_698284760c8add0bfb0756c19673e34b>@@V<lambda_dfb8eca1e75fef3034a8fb18dd509707>@@@?$__crt_seh_guarded_call@X@@QEAAX$$QEAV<lambda_fb3a7dec4e47f37f22dae91bb15c9095>@@AEAV<lambda_698284760c8add0bfb0756c19673e34b>@@$$QEAV<lambda_dfb8eca1e75fef3034a8fb18dd509707>@@@Z@4HA 0000000180010062 f   libucrt:per_thread_data.obj
 0001:0000f062       ?fin$0@?0???$?RV<lambda_46352004c1216016012b18bd6f87e700>@@AEAV<lambda_3bd07e1a1191394380780325891bf33f>@@V<lambda_334532d3f185bcaa59b5be82d7d22bff>@@@?$__crt_seh_guarded_call@X@@QEAAX$$QEAV<lambda_46352004c1216016012b18bd6f87e700>@@AEAV<lambda_3bd07e1a1191394380780325891bf33f>@@$$QEAV<lambda_334532d3f185bcaa59b5be82d7d22bff>@@@Z@4HA 0000000180010062 f   libucrt:per_thread_data.obj
 0001:0000f062       ?fin$0@?0???$?RV<lambda_5e887d1dcbef67a5eb4283622ba103bf>@@AEAV<lambda_4466841279450cc726390878d4a41900>@@V<lambda_341c25c0346d94847f1f3c463c57e077>@@@?$__crt_seh_guarded_call@X@@QEAAX$$QEAV<lambda_5e887d1dcbef67a5eb4283622ba103bf>@@AEAV<lambda_4466841279450cc726390878d4a41900>@@$$QEAV<lambda_341c25c0346d94847f1f3c463c57e077>@@@Z@4HA 0000000180010062 f   libucrt:per_thread_data.obj
 0001:0000f07c       ?fin$0@?0???$?RV<lambda_9431c60049192bb82166e0947f95a2e9>@@AEAV<lambda_85fa512c59a4d94d4a89f575eefd92a6>@@V<lambda_487febba6ca58d9ce348204d67e1dba3>@@@?$__crt_seh_guarded_call@X@@QEAAX$$QEAV<lambda_9431c60049192bb82166e0947f95a2e9>@@AEAV<lambda_85fa512c59a4d94d4a89f575eefd92a6>@@$$QEAV<lambda_487febba6ca58d9ce348204d67e1dba3>@@@Z@4HA 000000018001007c f   libucrt:wsetlocale.obj
 0001:0000f096       ?fin$0@?0??update_thread_multibyte_data_internal@@YAPEAU__crt_multibyte_data@@QEAU__acrt_ptd@@QEAU1@@Z@4HA 0000000180010096 f   libucrt:mbctype.obj
 0001:0000f0af       __acrt_lowio_ensure_fh_exists$fin$0 00000001800100af f   libucrt:osfinfo.obj
 0001:0000f0af       __acrt_initialize_lowio$fin$0 00000001800100af f   libucrt:ioinit.obj
 0001:0000f0c8       _query_new_handler$fin$0   00000001800100c8 f   libucrt:new_handler.obj
 0001:0000f0de       raise$fin$0                00000001800100de f   libucrt:signal.obj
 0001:0000f102       __acrt_update_thread_locale_data$fin$0 0000000180010102 f   libucrt:locale_refcounting.obj
 0001:0000f11b       common_flush_all$fin$0     000000018001011b f   libucrt:fflush.obj
 0001:0000f135       common_flush_all$fin$1     0000000180010135 f   libucrt:fflush.obj
 0001:0000f14e       _fcloseall$fin$0           000000018001014e f   libucrt:closeall.obj
 0001:0000f167       _write$fin$0               0000000180010167 f   libucrt:write.obj
 0001:0000f17e       fclose$fin$0               000000018001017e f   libucrt:fclose.obj
 0001:0000f196       ?fin$0@?0???$?RV<lambda_b521505b218e5242e90febf6bfebc422>@@AEAV<lambda_6978c1fb23f02e42e1d9e99668cc68aa>@@V<lambda_314360699dd331753a4119843814e9a7>@@@?$__crt_seh_guarded_call@H@@QEAAH$$QEAV<lambda_b521505b218e5242e90febf6bfebc422>@@AEAV<lambda_6978c1fb23f02e42e1d9e99668cc68aa>@@$$QEAV<lambda_314360699dd331753a4119843814e9a7>@@@Z@4HA 0000000180010196 f   libucrt:commit.obj
 0001:0000f196       ?fin$0@?0???$?RV<lambda_bfedae4ebbf01fab1bb6dcc6a9e276e0>@@AEAV<lambda_2fe9b910cf3cbf4a0ab98a02ba45b3ec>@@V<lambda_237c231691f317818eb88cc1d5d642d6>@@@?$__crt_seh_guarded_call@H@@QEAAH$$QEAV<lambda_bfedae4ebbf01fab1bb6dcc6a9e276e0>@@AEAV<lambda_2fe9b910cf3cbf4a0ab98a02ba45b3ec>@@$$QEAV<lambda_237c231691f317818eb88cc1d5d642d6>@@@Z@4HA 0000000180010196 f   libucrt:close.obj
 0001:0000f1b0       _ctrlfp$filt$0             00000001800101b0 f   libucrt:fpctrl.obj
 0001:0000f1e0       _IsNonwritableInCurrentImage$filt$0 00000001800101e0 f   LIBCMT:pesect.obj
 0002:00000a80       ?module_names@?A0x679b24ab@@3QBQEB_WB 0000000180011a80     libvcruntime:winapi_downlevel.obj
 0002:00000b50       ?candidate_modules@?1??try_get_FlsAlloc@@YAP6AKP6AXPEAX@Z@ZXZ@4QBW4module_id@?A0x679b24ab@@B 0000000180011b50     libvcruntime:winapi_downlevel.obj
 0002:00000b68       ?candidate_modules@?1??try_get_FlsFree@@YAP6AHK@ZXZ@4QBW4module_id@?A0x679b24ab@@B 0000000180011b68     libvcruntime:winapi_downlevel.obj
 0002:00000b78       ?candidate_modules@?1??try_get_FlsGetValue@@YAP6APEAXK@ZXZ@4QBW4module_id@?A0x679b24ab@@B 0000000180011b78     libvcruntime:winapi_downlevel.obj
 0002:00000b90       ?candidate_modules@?1??try_get_FlsSetValue@@YAP6AHKPEAX@ZXZ@4QBW4module_id@?A0x679b24ab@@B 0000000180011b90     libvcruntime:winapi_downlevel.obj
 0002:00000ba8       ?candidate_modules@?1??try_get_InitializeCriticalSectionEx@@YAP6AHPEAU_RTL_CRITICAL_SECTION@@KK@ZXZ@4QBW4module_id@?A0x679b24ab@@B 0000000180011ba8     libvcruntime:winapi_downlevel.obj
 0002:00000bd0       ?tokenTable@@3QBQEBDB      0000000180011bd0     libvcruntime:undname.obj
 0002:00000c40       ?nameTable@@3QBQEBDB       0000000180011c40     libvcruntime:undname.obj
 0002:00000ec8       ?rttiTable@@3QBQEBDB       0000000180011ec8     libvcruntime:undname.obj
 0002:00001650       __acrt_initializers        0000000180012650     libucrt:initialization.obj
 0002:00001740       errtable                   0000000180012740     libucrt:errno.obj
 0002:00002740       module_names               0000000180013740     libucrt:winapi_thunks.obj
 0002:00002c30       ?candidate_modules@?1??try_get_FlsAlloc@@YAP6AKP6AXPEAX@Z@ZXZ@4QBW4module_id@?A0x391cf84c@@B 0000000180013c30     libucrt:winapi_thunks.obj
 0002:00002c38       ?candidate_modules@?1??try_get_FlsFree@@YAP6AHK@ZXZ@4QBW4module_id@?A0x391cf84c@@B 0000000180013c38     libucrt:winapi_thunks.obj
 0002:00002c40       ?candidate_modules@?1??try_get_FlsGetValue@@YAP6APEAXK@ZXZ@4QBW4module_id@?A0x391cf84c@@B 0000000180013c40     libucrt:winapi_thunks.obj
 0002:00002c48       ?candidate_modules@?1??try_get_FlsSetValue@@YAP6AHKPEAX@ZXZ@4QBW4module_id@?A0x391cf84c@@B 0000000180013c48     libucrt:winapi_thunks.obj
 0002:00002c50       ?candidate_modules@?1??try_get_GetCurrentPackageId@@YAP6AJPEAIPEAE@ZXZ@4QBW4module_id@?A0x391cf84c@@B 0000000180013c50     libucrt:winapi_thunks.obj
 0002:00002c70       ?candidate_modules@?1??try_get_InitializeCriticalSectionEx@@YAP6AHPEAU_RTL_CRITICAL_SECTION@@KK@ZXZ@4QBW4module_id@?A0x391cf84c@@B 0000000180013c70     libucrt:winapi_thunks.obj
 0002:00002c78       ?candidate_modules@?1??try_get_LCMapStringEx@@YAP6AHPEB_WK0HPEA_WHPEAU_nlsversioninfo@@PEAX_J@ZXZ@4QBW4module_id@?A0x391cf84c@@B 0000000180013c78     libucrt:winapi_thunks.obj
 0002:00002c90       ?candidate_modules@?1??try_get_LocaleNameToLCID@@YAP6AKPEB_WK@ZXZ@4QBW4module_id@?A0x391cf84c@@B 0000000180013c90     libucrt:winapi_thunks.obj
 0002:00002cb0       _mb_locale_names           0000000180013cb0     libucrt:mbctype.obj
 0002:00003220       LcidToLocaleNameTable      0000000180014220     libucrt:lcidtoname_downlevel.obj
 0002:00004c70       LocaleNameToIndexTable     0000000180015c70     libucrt:lcidtoname_downlevel.obj
 0002:00006010       __real_ninf                0000000180017010     libucrt:log10.obj
 0002:00006020       __real_inf                 0000000180017020     libucrt:log10.obj
 0002:00006030       __real_neg_qnan            0000000180017030     libucrt:log10.obj
 0002:00006040       __real_qnanbit             0000000180017040     libucrt:log10.obj
 0002:00006050       __int_1023                 0000000180017050     libucrt:log10.obj
 0002:00006060       __mask_001                 0000000180017060     libucrt:log10.obj
 0002:00006070       __mask_mant                0000000180017070     libucrt:log10.obj
 0002:00006080       __mask_mant_top8           0000000180017080     libucrt:log10.obj
 0002:00006090       __mask_mant9               0000000180017090     libucrt:log10.obj
 0002:000060a0       __real_log10_e             00000001800170a0     libucrt:log10.obj
 0002:000060b0       __real_log10_e_lead        00000001800170b0     libucrt:log10.obj
 0002:000060c0       __real_log10_e_tail        00000001800170c0     libucrt:log10.obj
 0002:000060d0       __real_log10_2_lead        00000001800170d0     libucrt:log10.obj
 0002:000060e0       __real_log10_2_tail        00000001800170e0     libucrt:log10.obj
 0002:000060f0       __real_two                 00000001800170f0     libucrt:log10.obj
 0002:00006100       __real_one                 0000000180017100     libucrt:log10.obj
 0002:00006110       __real_half                0000000180017110     libucrt:log10.obj
 0002:00006120       __mask_100                 0000000180017120     libucrt:log10.obj
 0002:00006130       __real_1_over_512          0000000180017130     libucrt:log10.obj
 0002:00006140       __real_1_over_2            0000000180017140     libucrt:log10.obj
 0002:00006150       __real_1_over_3            0000000180017150     libucrt:log10.obj
 0002:00006160       __real_1_over_4            0000000180017160     libucrt:log10.obj
 0002:00006170       __real_1_over_5            0000000180017170     libucrt:log10.obj
 0002:00006180       __real_1_over_6            0000000180017180     libucrt:log10.obj
 0002:00006190       __real_neg_1023            0000000180017190     libucrt:log10.obj
 0002:000061a0       __mask_2045                00000001800171a0     libucrt:log10.obj
 0002:000061b0       __real_threshold           00000001800171b0     libucrt:log10.obj
 0002:000061c0       __real_near_one_lt         00000001800171c0     libucrt:log10.obj
 0002:000061d0       __real_near_one_gt         00000001800171d0     libucrt:log10.obj
 0002:000061e0       __real_min_norm            00000001800171e0     libucrt:log10.obj
 0002:000061f0       __real_notsign             00000001800171f0     libucrt:log10.obj
 0002:00006200       __real_ca1                 0000000180017200     libucrt:log10.obj
 0002:00006210       __real_ca2                 0000000180017210     libucrt:log10.obj
 0002:00006220       __real_ca3                 0000000180017220     libucrt:log10.obj
 0002:00006230       __real_ca4                 0000000180017230     libucrt:log10.obj
 0002:00006240       __mask_lower               0000000180017240     libucrt:log10.obj
 0002:00006250       __flag_x_zero              0000000180017250     libucrt:log10.obj
 0002:00006254       __flag_x_neg               0000000180017254     libucrt:log10.obj
 0002:00006258       __flag_x_nan               0000000180017258     libucrt:log10.obj
 0002:00007ab0       __real@433fffffffffffff    0000000180018ab0     libucrt:fpsr.obj
 0002:00007ab8       __real@c33fffffffffffff    0000000180018ab8     libucrt:fpsr.obj
 0002:00007ac0       GS_ExceptionPointers       0000000180018ac0     LIBCMT:gs_report.obj
 0002:00007e50       $unwind$?StringCchCopyW@@YAJPEA_W_KPEB_W@Z 0000000180018e50     ConEmuLn.obj
 0002:00007e58       $unwind$?StringCchCatW@@YAJPEA_W_KPEB_W@Z 0000000180018e58     ConEmuLn.obj
 0002:00007e64       $unwind$?SettingsLoadReg@@YAXPEB_W@Z 0000000180018e64     ConEmuLn.obj
 0002:00007e64       $unwind$__scrt_initialize_onexit_tables 0000000180018e64     LIBCMT:utility.obj
 0002:00007e70       $unwind$?SettingsSaveReg@@YAXPEB_W@Z 0000000180018e70     ConEmuLn.obj
 0002:00007e70       $unwind$_call_matherr      0000000180018e70     libucrt:libm_error.obj
 0002:00007e78       $unwind$?LoadFarVersion@@YAHXZ 0000000180018e78     ConEmuLn.obj
 0002:00007e88       $unwind$?PaintConEmuBackground@@YAHPEAUPaintBackgroundArg@@@Z 0000000180018e88     ConEmuLn.obj
 0002:00007e98       $unwind$?StartPlugin@@YAXH@Z 0000000180018e98     ConEmuLn.obj
 0002:00007eb0       $unwind$?ExitPlugin@@YAXXZ 0000000180018eb0     ConEmuLn.obj
 0002:00007eb8       $unwind$?LoadModuleVersion@@YA_NPEB_WAEAUtagVS_FIXEDFILEINFO@@PEA_W_K@Z 0000000180018eb8     ConEmuLn.obj
 0002:00007ed0       $unwind$?ChangeExports@@YA_NPEBUExportFunc@@PEAUHINSTANCE__@@@Z 0000000180018ed0     ConEmuLn.obj
 0002:00007eec       $unwind$?SetStartupInfoW995@@YAXPEAX@Z 0000000180018eec     ConEmuLn995.obj
 0002:00007efc       $unwind$?ConfigureProc@@YAHH@Z 0000000180018efc     ConEmuLn995.obj
 0002:00007f18       $unwind$?SettingsSaveW2800@@YAXXZ 0000000180018f18     ConEmuLn2800.obj
 0002:00007f18       $unwind$?SettingsSaveW1900@@YAXXZ 0000000180018f18     ConEmuLn1900.obj
 0002:00007f28       $unwind$?ConfigDlgProc@@YA_JPEAXHH0@Z 0000000180018f28     ConEmuLn1900.obj
 0002:00007f28       $unwind$?ConfigDlgProc@@YA_JPEAXHH_J@Z 0000000180018f28     ConEmuLn995.obj
 0002:00007f28       $unwind$?ConfigDlgProc@@YA_JPEAXHH_J@Z 0000000180018f28     ConEmuLnA.obj
 0002:00007f3c       $unwind$?ConfigureProc@@YAHH@Z 0000000180018f3c     ConEmuLn1900.obj
 0002:00007f58       $unwind$GetGlobalInfoW     0000000180018f58     ConEmuLn2800.obj
 0002:00007f60       $unwind$?SettingsLoadW2800@@YAXXZ 0000000180018f60     ConEmuLn2800.obj
 0002:00007f60       $unwind$?SettingsLoadW1900@@YAXXZ 0000000180018f60     ConEmuLn1900.obj
 0002:00007f6c       $unwind$?SetStartupInfoW1900@@YAXPEAX@Z 0000000180018f6c     ConEmuLn1900.obj
 0002:00007f6c       $unwind$?SetStartupInfoW2800@@YAXPEAX@Z 0000000180018f6c     ConEmuLn2800.obj
 0002:00007f80       $unwind$?ConfigDlgProc@@YA_JPEAX_J10@Z 0000000180018f80     ConEmuLn2800.obj
 0002:00007f94       $unwind$?ConfigureProc@@YAHH@Z 0000000180018f94     ConEmuLn2800.obj
 0002:00007fb0       $unwind$SetStartupInfo     0000000180018fb0     ConEmuLnA.obj
 0002:00007fc4       $unwind$?ConfigureProc@@YAHH@Z 0000000180018fc4     ConEmuLnA.obj
 0002:00007fe0       $unwind$?ExitFARW995@@YAXXZ 0000000180018fe0     ConEmuLn995.obj
 0002:00007fe0       $unwind$__doserrno         0000000180018fe0     libucrt:errno.obj
 0002:00007fe0       $unwind$__acrt_release_locale_ref 0000000180018fe0     libucrt:locale_refcounting.obj
 0002:00007fe0       $unwind$?dllmain_crt_dispatch@@YAHQEAUHINSTANCE__@@KQEAX@Z 0000000180018fe0     LIBCMT:dll_dllmain.obj
 0002:00007fe0       $unwind$_errno             0000000180018fe0     libucrt:errno.obj
 0002:00007fe0       $unwind$__acrt_update_thread_multibyte_data 0000000180018fe0     libucrt:mbctype.obj
 0002:00007fe0       $unwind$__acrt_initialize_multibyte 0000000180018fe0     libucrt:mbctype.obj
 0002:00007fe0       $unwind$?ExitFARW2800@@YAXXZ 0000000180018fe0     ConEmuLn2800.obj
 0002:00007fe0       $unwind$__acrt_DownlevelLocaleNameToLCID 0000000180018fe0     libucrt:lcidtoname_downlevel.obj
 0002:00007fe0       $unwind$_isatty            0000000180018fe0     libucrt:isatty.obj
 0002:00007fe0       $unwind$?ExitFARW3@@YAXPEAX@Z 0000000180018fe0     ConEmuLn.obj
 0002:00007fe0       $unwind$__scrt_initialize_default_local_stdio_options 0000000180018fe0     LIBCMT:default_local_stdio_options.obj
 0002:00007fe0       $unwind$_msize             0000000180018fe0     libucrt:msize.obj
 0002:00007fe0       $unwind$__pctype_func      0000000180018fe0     libucrt:ctype.obj
 0002:00007fe0       $unwind$_invoke_watson     0000000180018fe0     libucrt:invalid_parameter.obj
 0002:00007fe0       $unwind$__dcrt_uninitialize_environments_nolock 0000000180018fe0     libucrt:environment_initialization.obj
 0002:00007fe0       $unwind$??$uninitialize_environment_internal@D@@YAXAEAPEAPEAD@Z 0000000180018fe0     libucrt:environment_initialization.obj
 0002:00007fe0       $unwind$atexit             0000000180018fe0     LIBCMT:utility.obj
 0002:00007fe0       $unwind$__acrt_uninitialize_ptd 0000000180018fe0     libucrt:per_thread_data.obj
 0002:00007fe0       $unwind$_set_errno_from_matherr 0000000180018fe0     libucrt:fpexcept.obj
 0002:00007fe0       $unwind$uninitialize_environment 0000000180018fe0     libucrt:initialization.obj
 0002:00007fe0       $unwind$__acrt_initialize_heap 0000000180018fe0     libucrt:heap_handle.obj
 0002:00007fe0       $unwind$DllMain            0000000180018fe0     ConEmuLn.obj
 0002:00007fe0       $unwind$??$uninitialize_environment_internal@_W@@YAXAEAPEAPEA_W@Z 0000000180018fe0     libucrt:environment_initialization.obj
 0002:00007fe0       $unwind$__acrt_initialize_ptd 0000000180018fe0     libucrt:per_thread_data.obj
 0002:00007fe0       $unwind$__scrt_acquire_startup_lock 0000000180018fe0     LIBCMT:utility.obj
 0002:00007fe0       $unwind$ExitFARW           0000000180018fe0     ConEmuLn.obj
 0002:00007fe0       $unwind$initialize_c       0000000180018fe0     libucrt:initialization.obj
 0002:00007fe0       $unwind$__GSHandlerCheck   0000000180018fe0     LIBCMT:_gshandler_.obj
 0002:00007fe0       $unwind$__acrt_thread_detach 0000000180018fe0     libucrt:initialization.obj
 0002:00007fe0       $unwind$__acrt_thread_attach 0000000180018fe0     libucrt:initialization.obj
 0002:00007fe0       $unwind$abort              0000000180018fe0     libucrt:abort.obj
 0002:00007fe0       $unwind$__acrt_initialize_command_line 0000000180018fe0     libucrt:argv_data.obj
 0002:00007fe0       $unwind$?OnConEmuLoaded@@YAXPEAUConEmuLoadedArg@@@Z 0000000180018fe0     ConEmuLn.obj
 0002:00007fe0       $unwind$__acrt_uninitialize_critical 0000000180018fe0     libucrt:initialization.obj
 0002:00007fe0       $unwind$?SettingsLoad@@YAXXZ 0000000180018fe0     ConEmuLn.obj
 0002:00007fe0       $unwind$_fileno            0000000180018fe0     libucrt:fileno.obj
 0002:00007fe0       $unwind$__scrt_dllmain_before_initialize_c 0000000180018fe0     LIBCMT:utility.obj
 0002:00007fe0       $unwind$OpenPlugin         0000000180018fe0     ConEmuLnA.obj
 0002:00007fe0       $unwind$__scrt_dllmain_after_initialize_c 0000000180018fe0     LIBCMT:utility.obj
 0002:00007fe0       $unwind$__vcrt_freefls     0000000180018fe0     libvcruntime:per_thread_data.obj
 0002:00007fe0       $unwind$__scrt_dllmain_uninitialize_c 0000000180018fe0     LIBCMT:utility.obj
 0002:00007fe0       $unwind$__dcrt_terminate_console_output 0000000180018fe0     libucrt:initcon.obj
 0002:00007fe0       $unwind$__scrt_dllmain_uninitialize_critical 0000000180018fe0     LIBCMT:utility.obj
 0002:00007fe0       $unwind$?OpenW@@YAPEAXPEBX@Z 0000000180018fe0     ConEmuLn.obj
 0002:00007fe0       $unwind$__scrt_dllmain_crt_thread_attach 0000000180018fe0     LIBCMT:utility.obj
 0002:00007fe0       $unwind$__vcrt_uninitialize_ptd 0000000180018fe0     libvcruntime:per_thread_data.obj
 0002:00007fe0       $unwind$__scrt_dllmain_crt_thread_detach 0000000180018fe0     LIBCMT:utility.obj
 0002:00007fe0       $unwind$__vcrt_initialize_ptd 0000000180018fe0     libvcruntime:per_thread_data.obj
 0002:00007fe0       $unwind$GetMinFarVersion   0000000180018fe0     ConEmuLnA.obj
 0002:00007fe0       $unwind$ExitFAR            0000000180018fe0     ConEmuLnA.obj
 0002:00007fe0       $unwind$?xf_free@@YAXPEAX@Z 0000000180018fe0     Memory.obj
 0002:00007fe0       $unwind$uninitialize_allocated_memory 0000000180018fe0     libucrt:initialization.obj
 0002:00007fe0       $unwind$?ExitFARW1900@@YAXXZ 0000000180018fe0     ConEmuLn1900.obj
 0002:00007fe0       $unwind$__report_rangecheckfailure 0000000180018fe0     LIBCMT:gs_report.obj
 0002:00007fe0       $unwind$__vcrt_thread_detach 0000000180018fe0     libvcruntime:initialization.obj
 0002:00007fe0       $unwind$?initialize_multibyte@@YAHXZ 0000000180018fe0     libucrt:multibyte_initializer.obj
 0002:00007fe0       $unwind$__vcrt_thread_attach 0000000180018fe0     libvcruntime:initialization.obj
 0002:00007fe0       $unwind$_get_osfhandle     0000000180018fe0     libucrt:osfinfo.obj
 0002:00007fe0       $unwind$__vcrt_uninitialize_critical 0000000180018fe0     libvcruntime:initialization.obj
 0002:00007fe0       $unwind$_statfp            0000000180018fe0     libucrt:fpctrl.obj
 0002:00007fe0       $unwind$?HeapDeinitialize@@YAXXZ 0000000180018fe0     Memory.obj
 0002:00007fe0       $unwind$__vcrt_uninitialize 0000000180018fe0     libvcruntime:initialization.obj
 0002:00007fe0       $unwind$__vcrt_initialize  0000000180018fe0     libvcruntime:initialization.obj
 0002:00007fe8       $xdatasym                  0000000180018fe8     LIBCMT:_chkstk_.obj
 0002:00007ff0       $unwind$?dllmain_crt_process_attach@@YAHQEAUHINSTANCE__@@QEAX@Z 0000000180018ff0     LIBCMT:dll_dllmain.obj
 0002:0000801c       $unwind$?dllmain_crt_process_detach@@YAH_N@Z 000000018001901c     LIBCMT:dll_dllmain.obj
 0002:00008044       $unwind$?dllmain_dispatch@@YAHQEAUHINSTANCE__@@KQEAX@Z 0000000180019044     LIBCMT:dll_dllmain.obj
 0002:0000806c       $unwind$?filt$0@?0??dllmain_dispatch@@YAHQEAUHINSTANCE__@@KQEAX@Z@4HA 000000018001906c     LIBCMT:dll_dllmain.obj
 0002:00008074       $unwind$__scrt_is_nonwritable_in_current_image 0000000180019074     LIBCMT:utility.obj
 0002:00008094       $unwind$__scrt_is_nonwritable_in_current_image$filt$0 0000000180019094     LIBCMT:utility.obj
 0002:0000809c       $unwind$__security_init_cookie 000000018001909c     LIBCMT:gs_support.obj
 0002:000080a8       $unwind$__scrt_fastfail    00000001800190a8     LIBCMT:utility_desktop.obj
 0002:000080b8       $unwind$__isa_available_init 00000001800190b8     LIBCMT:_cpu_disp_.obj
 0002:000080c8       $xdatasym                  00000001800190c8     LIBCMT:_guard_dispatch_.obj
 0002:000080cc       $unwind$?PaintLines@@YAXPEAUHDC__@@KHHHHH@Z 00000001800190cc     ConEmuLn.obj
 0002:000080cc       $unwind$__C_specific_handler 00000001800190cc     libvcruntime:_chandler_.obj
 0002:000080e8       $xdatasym                  00000001800190e8     libvcruntime:memcpy.obj
 0002:000080f0       $xdatasym                  00000001800190f0     libvcruntime:memset.obj
 0002:000080f8       $xdatasym                  00000001800190f8     libvcruntime:_jmpuwind_.obj
 0002:0000810c       $unwind$__acrt_lowio_create_handle_array 000000018001910c     libucrt:osfinfo.obj
 0002:0000810c       $unwind$__acrt_free_locale 000000018001910c     libucrt:locale_refcounting.obj
 0002:0000810c       $unwind$_seh_filter_exe    000000018001910c     libucrt:exception_filter.obj
 0002:0000810c       $unwind$?setSBCS@@YAXPEAU__crt_multibyte_data@@@Z 000000018001910c     libucrt:mbctype.obj
 0002:0000810c       $unwind$_recalloc_base     000000018001910c     libucrt:recalloc.obj
 0002:0000810c       $unwind$??$uninitialize@V<lambda_30a498feb8538b5c3153c22026e33470>@@@?$dual_state_global@PEAU__crt_multibyte_data@@@__crt_state_management@@QEAAX$$QEAV<lambda_30a498feb8538b5c3153c22026e33470>@@@Z 000000018001910c     libucrt:initialization.obj
 0002:0000810c       $unwind$?expand_if_necessary@?$argument_list@D@?A0x5f5c8891@@AEAAHXZ 000000018001910c     libucrt:argv_wildcards.obj
 0002:0000810c       $unwind$?dllmain_raw@@YAHQEAUHINSTANCE__@@KQEAX@Z 000000018001910c     LIBCMT:dll_dllmain.obj
 0002:0000810c       $unwind$__scrt_dllmain_exception_filter 000000018001910c     LIBCMT:utility.obj
 0002:0000810c       $unwind$__vcrt_InitializeCriticalSectionEx 000000018001910c     libvcruntime:winapi_downlevel.obj
 0002:0000810c       $unwind$__acrt_execute_initializers 000000018001910c     libucrt:shared_initialization.obj
 0002:0000810c       $unwind$__acrt_InitializeCriticalSectionEx 000000018001910c     libucrt:winapi_thunks.obj
 0002:00008120       $unwind$__vcrt_uninitialize_winapi_thunks 0000000180019120     libvcruntime:winapi_downlevel.obj
 0002:00008128       $unwind$strtoul            0000000180019128     libucrt:strtox.obj
 0002:00008128       $unwind$wcstoul            0000000180019128     libucrt:strtox.obj
 0002:00008130       $unwind$??$parse_integer@KV?$c_string_character_source@D@__crt_strtox@@@__crt_strtox@@YAKQEAU__crt_locale_pointers@@V?$c_string_character_source@D@0@H_N@Z 0000000180019130     libucrt:strtox.obj
 0002:0000814c       $unwind$??$parse_integer@KV?$c_string_character_source@_W@__crt_strtox@@@__crt_strtox@@YAKQEAU__crt_locale_pointers@@V?$c_string_character_source@_W@0@H_N@Z 000000018001914c     libucrt:strtox.obj
 0002:00008168       $unwind$?common_exit@@YAXHW4_crt_exit_cleanup_mode@@W4_crt_exit_return_mode@@@Z 0000000180019168     libucrt:exit.obj
 0002:000081a8       $unwind$_configure_narrow_argv 00000001800191a8     libucrt:argv_parsing.obj
 0002:000081bc       $unwind$??R<lambda_4e60a939b0d047cfe11ddc22648dfba9>@@QEBAHXZ 00000001800191bc     libucrt:onexit.obj
 0002:000081bc       $unwind$??$parse_command_line@D@@YAXPEADPEAPEAD0PEA_K2@Z 00000001800191bc     libucrt:argv_parsing.obj
 0002:000081d8       $unwind$??$free_environment@D@@YAXQEAPEAD@Z 00000001800191d8     libucrt:environment_initialization.obj
 0002:000081d8       $unwind$??$free_environment@_W@@YAXQEAPEA_W@Z 00000001800191d8     libucrt:environment_initialization.obj
 0002:000081e4       $unwind$??$create_environment@D@@YAQEAPEADQEAD@Z 00000001800191e4     libucrt:environment_initialization.obj
 0002:000081fc       $unwind$_register_onexit_function 00000001800191fc     libucrt:onexit.obj
 0002:00008204       $unwind$_execute_onexit_table 0000000180019204     libucrt:onexit.obj
 0002:0000820c       $unwind$??$?RV<lambda_b8c45f8f788dd370798f47cfe8ac3a86>@@AEAV<lambda_4e60a939b0d047cfe11ddc22648dfba9>@@V<lambda_332c3edc96d0294ec56c57d38c1cdfd5>@@@?$__crt_seh_guarded_call@H@@QEAAH$$QEAV<lambda_b8c45f8f788dd370798f47cfe8ac3a86>@@AEAV<lambda_4e60a939b0d047cfe11ddc22648dfba9>@@$$QEAV<lambda_332c3edc96d0294ec56c57d38c1cdfd5>@@@Z 000000018001920c     libucrt:onexit.obj
 0002:00008230       $unwind$??$?RV<lambda_e24bbb7b643b32fcea6fa61b31d4c984>@@AEAV<lambda_275893d493268fdec8709772e3fcec0e>@@V<lambda_9d71df4d7cf3f480f8d633942495c3b0>@@@?$__crt_seh_guarded_call@H@@QEAAH$$QEAV<lambda_e24bbb7b643b32fcea6fa61b31d4c984>@@AEAV<lambda_275893d493268fdec8709772e3fcec0e>@@$$QEAV<lambda_9d71df4d7cf3f480f8d633942495c3b0>@@@Z 0000000180019230     libucrt:onexit.obj
 0002:00008260       $unwind$terminate          0000000180019260     libucrt:terminate.obj
 0002:00008280       $unwind$__acrt_call_reportfault 0000000180019280     libucrt:invalid_parameter.obj
 0002:000082a0       $unwind$_invalid_parameter 00000001800192a0     libucrt:invalid_parameter.obj
 0002:000082b8       $unwind$_isctype_l         00000001800192b8     libucrt:isctype.obj
 0002:000082d4       $unwind$?construct_ptd_array@@YAXQEAU__acrt_ptd@@@Z 00000001800192d4     libucrt:per_thread_data.obj
 0002:000082dc       $unwind$?destroy_ptd_array@@YAXQEAU__acrt_ptd@@@Z 00000001800192dc     libucrt:per_thread_data.obj
 0002:000082e4       $unwind$??$?RV<lambda_72d1df2b273a38828b1ce30cbf4cdab5>@@AEAV<lambda_876a65b173b8412d3a47c70a915b0cf4>@@V<lambda_41932305e351933ebe8f8be3ed8bb5dc>@@@?$__crt_seh_guarded_call@X@@QEAAX$$QEAV<lambda_72d1df2b273a38828b1ce30cbf4cdab5>@@AEAV<lambda_876a65b173b8412d3a47c70a915b0cf4>@@$$QEAV<lambda_41932305e351933ebe8f8be3ed8bb5dc>@@@Z 00000001800192e4     libucrt:per_thread_data.obj
 0002:00008308       $unwind$??$?RV<lambda_5e887d1dcbef67a5eb4283622ba103bf>@@AEAV<lambda_4466841279450cc726390878d4a41900>@@V<lambda_341c25c0346d94847f1f3c463c57e077>@@@?$__crt_seh_guarded_call@X@@QEAAX$$QEAV<lambda_5e887d1dcbef67a5eb4283622ba103bf>@@AEAV<lambda_4466841279450cc726390878d4a41900>@@$$QEAV<lambda_341c25c0346d94847f1f3c463c57e077>@@@Z 0000000180019308     libucrt:per_thread_data.obj
 0002:0000832c       $unwind$??$?RV<lambda_46352004c1216016012b18bd6f87e700>@@AEAV<lambda_3bd07e1a1191394380780325891bf33f>@@V<lambda_334532d3f185bcaa59b5be82d7d22bff>@@@?$__crt_seh_guarded_call@X@@QEAAX$$QEAV<lambda_46352004c1216016012b18bd6f87e700>@@AEAV<lambda_3bd07e1a1191394380780325891bf33f>@@$$QEAV<lambda_334532d3f185bcaa59b5be82d7d22bff>@@@Z 000000018001932c     libucrt:per_thread_data.obj
 0002:00008350       $unwind$??$?RV<lambda_fb3a7dec4e47f37f22dae91bb15c9095>@@AEAV<lambda_698284760c8add0bfb0756c19673e34b>@@V<lambda_dfb8eca1e75fef3034a8fb18dd509707>@@@?$__crt_seh_guarded_call@X@@QEAAX$$QEAV<lambda_fb3a7dec4e47f37f22dae91bb15c9095>@@AEAV<lambda_698284760c8add0bfb0756c19673e34b>@@$$QEAV<lambda_dfb8eca1e75fef3034a8fb18dd509707>@@@Z 0000000180019350     libucrt:per_thread_data.obj
 0002:00008374       $unwind$??$?RV<lambda_9431c60049192bb82166e0947f95a2e9>@@AEAV<lambda_85fa512c59a4d94d4a89f575eefd92a6>@@V<lambda_487febba6ca58d9ce348204d67e1dba3>@@@?$__crt_seh_guarded_call@X@@QEAAX$$QEAV<lambda_9431c60049192bb82166e0947f95a2e9>@@AEAV<lambda_85fa512c59a4d94d4a89f575eefd92a6>@@$$QEAV<lambda_487febba6ca58d9ce348204d67e1dba3>@@@Z 0000000180019374     libucrt:wsetlocale.obj
 0002:0000839c       $unwind$__acrt_initialize_winapi_thunks 000000018001939c     libucrt:winapi_thunks.obj
 0002:000083a4       $unwind$iswctype           00000001800193a4     libucrt:iswctype.obj
 0002:000083a4       $unwind$__acrt_is_packaged_app 00000001800193a4     libucrt:winapi_thunks.obj
 0002:000083b0       $unwind$?try_get_function@@YAPEAXW4function_id@?A0x391cf84c@@QEBDQEBW4module_id@2@2@Z 00000001800193b0     libucrt:winapi_thunks.obj
 0002:000083b0       $unwind$?try_get_function@@YAPEAXW4function_id@?A0x679b24ab@@QEBDQEBW4module_id@2@2@Z 00000001800193b0     libvcruntime:winapi_downlevel.obj
 0002:000083cc       $unwind$??$common_expand_argv_wildcards@D@@YAHQEAPEADQEAPEAPEAD@Z 00000001800193cc     libucrt:argv_wildcards.obj
 0002:000083e4       $unwind$??$copy_and_add_argument_to_buffer@D@@YAHQEBD0_KAEAV?$argument_list@D@?A0x5f5c8891@@@Z 00000001800193e4     libucrt:argv_wildcards.obj
 0002:00008400       $unwind$??$expand_argument_wildcards@D@@YAHQEAD0AEAV?$argument_list@D@?A0x5f5c8891@@@Z 0000000180019400     libucrt:argv_wildcards.obj
 0002:00008420       $unwind$_setmbcp_nolock    0000000180019420     libucrt:mbctype.obj
 0002:00008440       $unwind$?setSBUpLow@@YAXPEAU__crt_multibyte_data@@@Z 0000000180019440     libucrt:mbctype.obj
 0002:0000845c       $unwind$?update_thread_multibyte_data_internal@@YAPEAU__crt_multibyte_data@@QEAU__acrt_ptd@@QEAU1@@Z 000000018001945c     libucrt:mbctype.obj
 0002:00008484       $unwind$?setmbcp_internal@@YAHH_NQEAU__acrt_ptd@@QEAPEAU__crt_multibyte_data@@@Z 0000000180019484     libucrt:mbctype.obj
 0002:00008494       $unwind$??R<lambda_2c5d36f8a66580c563e29092409944b2>@@QEBAXXZ 0000000180019494     libucrt:mbctype.obj
 0002:000084a4       $unwind$??$?RV<lambda_efb9b808e93e29b6b799d3875462c817>@@AEAV<lambda_2c5d36f8a66580c563e29092409944b2>@@V<lambda_31e551fca1567ef2425714047646aa90>@@@?$__crt_seh_guarded_call@X@@QEAAX$$QEAV<lambda_efb9b808e93e29b6b799d3875462c817>@@AEAV<lambda_2c5d36f8a66580c563e29092409944b2>@@$$QEAV<lambda_31e551fca1567ef2425714047646aa90>@@@Z 00000001800194a4     libucrt:mbctype.obj
 0002:000084c8       $unwind$?x_ismbbtype_l@@YAHPEAU__crt_locale_pointers@@IHH@Z 00000001800194c8     libucrt:ismbbyte.obj
 0002:000084d8       $unwind$__dcrt_get_narrow_environment_from_os 00000001800194d8     libucrt:get_environment_from_os.obj
 0002:000084f0       $unwind$__acrt_initialize_lowio 00000001800194f0     libucrt:ioinit.obj
 0002:00008510       $unwind$?initialize_inherited_file_handles_nolock@@YAXXZ 0000000180019510     libucrt:ioinit.obj
 0002:0000852c       $unwind$__acrt_LocaleNameToLCID 000000018001952c     libucrt:winapi_thunks.obj
 0002:0000852c       $unwind$_RTC_Initialize    000000018001952c     LIBCMT:_initsect_.obj
 0002:0000852c       $unwind$__vcrt_FlsSetValue 000000018001952c     libvcruntime:winapi_downlevel.obj
 0002:0000852c       $unwind$__acrt_stdio_flush_nolock 000000018001952c     libucrt:fflush.obj
 0002:0000852c       $unwind$??$common_lseek_nolock@_J@@YA_JH_JH@Z 000000018001952c     libucrt:lseek.obj
 0002:0000852c       $unwind$__acrt_execute_uninitializers 000000018001952c     libucrt:shared_initialization.obj
 0002:0000852c       $unwind$_RTC_Terminate     000000018001952c     LIBCMT:_initsect_.obj
 0002:0000852c       $unwind$__acrt_FlsSetValue 000000018001952c     libucrt:winapi_thunks.obj
 0002:0000852c       $unwind$?free_crt_array_internal@@YAXQEAPEBX_K@Z 000000018001952c     libucrt:inittime.obj
 0002:0000852c       $unwind$_initterm_e        000000018001952c     libucrt:initterm.obj
 0002:0000852c       $unwind$_exception_enabled 000000018001952c     libucrt:libm_error.obj
 0002:0000852c       $unwind$?PaintBack@@YAXPEAUHDC__@@KUtagRECT@@@Z 000000018001952c     ConEmuLn.obj
 0002:0000852c       $unwind$_DllMainCRTStartup 000000018001952c     LIBCMT:dll_dllmain.obj
 0002:0000852c       $unwind$__acrt_getptd_noexit 000000018001952c     libucrt:per_thread_data.obj
 0002:0000852c       $unwind$__vcrt_getptd_noexit 000000018001952c     libvcruntime:per_thread_data.obj
 0002:0000853c       $unwind$_query_new_handler 000000018001953c     libucrt:new_handler.obj
 0002:0000855c       $unwind$__acrt_get_sigabrt_handler 000000018001955c     libucrt:signal.obj
 0002:0000855c       $unwind$__acrt_uninitialize_locale 000000018001955c     libucrt:wsetlocale.obj
 0002:00008564       $unwind$raise              0000000180019564     libucrt:signal.obj
 0002:00008590       $unwind$??$?RV<lambda_c36588078e9f5dfd39652860aa6b3aaf>@@AEAV<lambda_ec61778202f4f5fc7e7711acc23c3bca>@@V<lambda_dc9d2797ccde5d239b4a0efae8ebd7db>@@@?$__crt_seh_guarded_call@P6AXH@Z@@QEAAP6AXH@Z$$QEAV<lambda_c36588078e9f5dfd39652860aa6b3aaf>@@AEAV<lambda_ec61778202f4f5fc7e7711acc23c3bca>@@$$QEAV<lambda_dc9d2797ccde5d239b4a0efae8ebd7db>@@@Z 0000000180019590     libucrt:signal.obj
 0002:000085b4       $unwind$?GetPluginInfoW2800@@YAXPEAX@Z 00000001800195b4     ConEmuLn2800.obj
 0002:000085b4       $unwind$__acrt_FlsAlloc    00000001800195b4     libucrt:winapi_thunks.obj
 0002:000085b4       $unwind$__vcrt_FlsGetValue 00000001800195b4     libvcruntime:winapi_downlevel.obj
 0002:000085b4       $unwind$strncpy_s          00000001800195b4     libucrt:strncpy_s.obj
 0002:000085b4       $unwind$?try_cor_exit_process@@YAXI@Z 00000001800195b4     libucrt:exit.obj
 0002:000085b4       $unwind$_realloc_base      00000001800195b4     libucrt:realloc_base.obj
 0002:000085b4       $unwind$?GetPluginInfoW1900@@YAXPEAX@Z 00000001800195b4     ConEmuLn1900.obj
 0002:000085b4       $unwind$__acrt_FlsFree     00000001800195b4     libucrt:winapi_thunks.obj
 0002:000085b4       $unwind$__acrt_getptd      00000001800195b4     libucrt:per_thread_data.obj
 0002:000085b4       $unwind$__vcrt_FlsFree     00000001800195b4     libvcruntime:winapi_downlevel.obj
 0002:000085b4       $unwind$??$common_initialize_environment_nolock@D@@YAHXZ 00000001800195b4     libucrt:environment_initialization.obj
 0002:000085b4       $unwind$__vcrt_FlsAlloc    00000001800195b4     libvcruntime:winapi_downlevel.obj
 0002:000085b4       $unwind$??0_LocaleUpdate@@QEAA@QEAU__crt_locale_pointers@@@Z 00000001800195b4     libucrt:strtox.obj
 0002:000085b4       $unwind$?GetPluginInfoW995@@YAXPEAX@Z 00000001800195b4     ConEmuLn995.obj
 0002:000085b4       $unwind$_updatetlocinfoEx_nolock 00000001800195b4     libucrt:locale_refcounting.obj
 0002:000085b4       $unwind$_fclose_nolock     00000001800195b4     libucrt:fclose.obj
 0002:000085b4       $unwind$__acrt_errno_map_os_error 00000001800195b4     libucrt:errno.obj
 0002:000085b4       $unwind$_callnewh          00000001800195b4     libucrt:new_handler.obj
 0002:000085b4       $unwind$__acrt_invoke_user_matherr 00000001800195b4     libucrt:matherr.obj
 0002:000085b4       $unwind$?replace_current_thread_locale_nolock@@YAXQEAU__acrt_ptd@@QEAU__crt_locale_data@@@Z 00000001800195b4     libucrt:per_thread_data.obj
 0002:000085b4       $unwind$__acrt_uninitialize_lowio 00000001800195b4     libucrt:ioinit.obj
 0002:000085b4       $unwind$__acrt_FlsGetValue 00000001800195b4     libucrt:winapi_thunks.obj
 0002:000085b4       $unwind$_close_nolock      00000001800195b4     libucrt:close.obj
 0002:000085b4       $unwind$GetPluginInfo      00000001800195b4     ConEmuLnA.obj
 0002:000085c0       $unwind$_mbtowc_l          00000001800195c0     libucrt:mbtowc.obj
 0002:000085c0       $unwind$__acrt_LCMapStringEx 00000001800195c0     libucrt:winapi_thunks.obj
 0002:000085d8       $unwind$__acrt_initialize_stdio 00000001800195d8     libucrt:_file.obj
 0002:000085d8       $unwind$_initterm          00000001800195d8     libucrt:initterm.obj
 0002:000085f0       $unwind$_isleadbyte_l      00000001800195f0     libucrt:_wctype.obj
 0002:000085f0       $unwind$?getSystemCP@@YAHH@Z 00000001800195f0     libucrt:mbctype.obj
 0002:000085f8       $unwind$__acrt_GetStringTypeA 00000001800195f8     libucrt:getstringtypea.obj
 0002:00008620       $unwind$_free_base         0000000180019620     libucrt:free_base.obj
 0002:00008620       $unwind$__acrt_locale_free_numeric 0000000180019620     libucrt:initnum.obj
 0002:00008620       $unwind$?destroy_fls@@YAXPEAX@Z 0000000180019620     libucrt:per_thread_data.obj
 0002:00008620       $unwind$__acrt_locale_free_lc_time_if_unreferenced 0000000180019620     libucrt:locale_refcounting.obj
 0002:00008628       $unwind$__acrt_update_thread_locale_data 0000000180019628     libucrt:locale_refcounting.obj
 0002:0000864c       $unwind$__acrt_locale_free_monetary 000000018001964c     libucrt:initmon.obj
 0002:00008654       $unwind$__acrt_locale_free_time 0000000180019654     libucrt:inittime.obj
 0002:00008664       $unwind$?GetTableIndexFromLocaleName@@YAHPEB_W@Z 0000000180019664     libucrt:lcidtoname_downlevel.obj
 0002:0000867c       $unwind$qsort              000000018001967c     libucrt:qsort.obj
 0002:00008694       $chain$4$qsort             0000000180019694     libucrt:qsort.obj
 0002:000086b8       $chain$5$qsort             00000001800196b8     libucrt:qsort.obj
 0002:000086c8       $unwind$?shortsort@@YAXPEAD0_KP6AHPEBX2@Z@Z 00000001800196c8     libucrt:qsort.obj
 0002:000086d8       $chain$2$?shortsort@@YAXPEAD0_KP6AHPEBX2@Z@Z 00000001800196d8     libucrt:qsort.obj
 0002:000086f4       $chain$3$?shortsort@@YAXPEAD0_KP6AHPEBX2@Z@Z 00000001800196f4     libucrt:qsort.obj
 0002:00008704       $unwind$strpbrk            0000000180019704     libucrt:strpbrk.obj
 0002:00008714       $unwind$_mbsdec_l          0000000180019714     libucrt:mbsdec.obj
 0002:00008720       $unwind$__acrt_LCMapStringA 0000000180019720     libucrt:lcmapstringa.obj
 0002:00008730       $unwind$?__acrt_LCMapStringA_stat@@YAHPEAU__crt_locale_pointers@@PEB_WKPEBDHPEADHHH@Z 0000000180019730     libucrt:lcmapstringa.obj
 0002:00008758       $unwind$_free_osfhnd       0000000180019758     libucrt:osfinfo.obj
 0002:00008758       $unwind$?initialize_stdio_handles_nolock@@YAXXZ 0000000180019758     libucrt:ioinit.obj
 0002:0000876c       $unwind$__acrt_lowio_destroy_handle_array 000000018001976c     libucrt:osfinfo.obj
 0002:0000877c       $unwind$__acrt_lowio_ensure_fh_exists 000000018001977c     libucrt:osfinfo.obj
 0002:000087a8       $unwind$__acrt_freeptd     00000001800197a8     libucrt:per_thread_data.obj
 0002:000087a8       $unwind$__vcrt_initialize_locks 00000001800197a8     libvcruntime:locks.obj
 0002:000087a8       $unwind$__acrt_initialize_locks 00000001800197a8     libucrt:locks.obj
 0002:000087a8       $unwind$__acrt_uninitialize_locks 00000001800197a8     libucrt:locks.obj
 0002:000087a8       $unwind$__acrt_update_locale_info 00000001800197a8     libucrt:locale_update.obj
 0002:000087a8       $unwind$__scrt_initialize_crt 00000001800197a8     LIBCMT:utility.obj
 0002:000087a8       $unwind$__vcrt_uninitialize_locks 00000001800197a8     libvcruntime:locks.obj
 0002:000087a8       $unwind$__acrt_getptd_head 00000001800197a8     libucrt:per_thread_data.obj
 0002:000087a8       $unwind$__scrt_release_startup_lock 00000001800197a8     LIBCMT:utility.obj
 0002:000087a8       $unwind$__std_type_info_destroy_list 00000001800197a8     libvcruntime:std_type_info.obj
 0002:000087a8       $unwind$__scrt_uninitialize_crt 00000001800197a8     LIBCMT:utility.obj
 0002:000087a8       $unwind$?HeapInitialize@@YA_NXZ 00000001800197a8     Memory.obj
 0002:000087a8       $unwind$_fflush_nolock     00000001800197a8     libucrt:fflush.obj
 0002:000087a8       $unwind$?exit_or_terminate_process@@YAXI@Z 00000001800197a8     libucrt:exit.obj
 0002:000087a8       $unwind$__acrt_update_multibyte_info 00000001800197a8     libucrt:locale_update.obj
 0002:000087a8       $unwind$__vcrt_freeptd     00000001800197a8     libvcruntime:per_thread_data.obj
 0002:000087a8       $unwind$_set_statfp        00000001800197a8     libucrt:fpctrl.obj
 0002:000087a8       $unwind$_calloc_base       00000001800197a8     libucrt:calloc_base.obj
 0002:000087a8       $unwind$__acrt_uninitialize_stdio 00000001800197a8     libucrt:_file.obj
 0002:000087a8       $unwind$_malloc_base       00000001800197a8     libucrt:malloc_base.obj
 0002:000087a8       $unwind$__acrt_stdio_free_buffer_nolock 00000001800197a8     libucrt:_freebuf.obj
 0002:000087a8       $unwind$__acrt_allocate_buffer_for_argv 00000001800197a8     libucrt:argv_parsing.obj
 0002:000087a8       $unwind$?OpenPluginWcmn@@YAPEAXH_J@Z 00000001800197a8     ConEmuLn.obj
 0002:000087a8       $unwind$_clrfp             00000001800197a8     libucrt:fpctrl.obj
 0002:000087a8       $unwind$initialize_pointers 00000001800197a8     libucrt:initialization.obj
 0002:000087a8       $unwind$SetStartupInfoW    00000001800197a8     ConEmuLn.obj
 0002:000087a8       $unwind$__acrt_uninitialize_winapi_thunks 00000001800197a8     libucrt:winapi_thunks.obj
 0002:000087a8       $unwind$_onexit            00000001800197a8     LIBCMT:utility.obj
 0002:000087a8       $unwind$__raise_securityfailure 00000001800197a8     LIBCMT:gs_report.obj
 0002:000087a8       $unwind$strcpy_s           00000001800197a8     libucrt:strcpy_s.obj
 0002:000087b0       $unwind$common_flush_all   00000001800197b0     libucrt:fflush.obj
 0002:000087ec       $unwind$?fin$0@?0??dllmain_crt_process_attach@@YAHQEAUHINSTANCE__@@QEAX@Z@4HA 00000001800197ec     LIBCMT:dll_dllmain.obj
 0002:000087ec       $unwind$?fin$0@?0???$?RV<lambda_efb9b808e93e29b6b799d3875462c817>@@AEAV<lambda_2c5d36f8a66580c563e29092409944b2>@@V<lambda_31e551fca1567ef2425714047646aa90>@@@?$__crt_seh_guarded_call@X@@QEAAX$$QEAV<lambda_efb9b808e93e29b6b799d3875462c817>@@AEAV<lambda_2c5d36f8a66580c563e29092409944b2>@@$$QEAV<lambda_31e551fca1567ef2425714047646aa90>@@@Z@4HA 00000001800197ec     libucrt:mbctype.obj
 0002:000087ec       $unwind$?fin$0@?0???$?RV<lambda_72d1df2b273a38828b1ce30cbf4cdab5>@@AEAV<lambda_876a65b173b8412d3a47c70a915b0cf4>@@V<lambda_41932305e351933ebe8f8be3ed8bb5dc>@@@?$__crt_seh_guarded_call@X@@QEAAX$$QEAV<lambda_72d1df2b273a38828b1ce30cbf4cdab5>@@AEAV<lambda_876a65b173b8412d3a47c70a915b0cf4>@@$$QEAV<lambda_41932305e351933ebe8f8be3ed8bb5dc>@@@Z@4HA 00000001800197ec     libucrt:per_thread_data.obj
 0002:000087ec       $unwind$__acrt_update_thread_locale_data$fin$0 00000001800197ec     libucrt:locale_refcounting.obj
 0002:000087ec       $unwind$?fin$0@?0???$?RV<lambda_c36588078e9f5dfd39652860aa6b3aaf>@@AEAV<lambda_ec61778202f4f5fc7e7711acc23c3bca>@@V<lambda_dc9d2797ccde5d239b4a0efae8ebd7db>@@@?$__crt_seh_guarded_call@P6AXH@Z@@QEAAP6AXH@Z$$QEAV<lambda_c36588078e9f5dfd39652860aa6b3aaf>@@AEAV<lambda_ec61778202f4f5fc7e7711acc23c3bca>@@$$QEAV<lambda_dc9d2797ccde5d239b4a0efae8ebd7db>@@@Z@4HA 00000001800197ec     libucrt:signal.obj
 0002:000087ec       $unwind$?fin$0@?0???$?RV<lambda_e24bbb7b643b32fcea6fa61b31d4c984>@@AEAV<lambda_275893d493268fdec8709772e3fcec0e>@@V<lambda_9d71df4d7cf3f480f8d633942495c3b0>@@@?$__crt_seh_guarded_call@H@@QEAAH$$QEAV<lambda_e24bbb7b643b32fcea6fa61b31d4c984>@@AEAV<lambda_275893d493268fdec8709772e3fcec0e>@@$$QEAV<lambda_9d71df4d7cf3f480f8d633942495c3b0>@@@Z@4HA 00000001800197ec     libucrt:onexit.obj
 0002:000087ec       $unwind$?fin$0@?0???$?RV<lambda_b8c45f8f788dd370798f47cfe8ac3a86>@@AEAV<lambda_4e60a939b0d047cfe11ddc22648dfba9>@@V<lambda_332c3edc96d0294ec56c57d38c1cdfd5>@@@?$__crt_seh_guarded_call@H@@QEAAH$$QEAV<lambda_b8c45f8f788dd370798f47cfe8ac3a86>@@AEAV<lambda_4e60a939b0d047cfe11ddc22648dfba9>@@$$QEAV<lambda_332c3edc96d0294ec56c57d38c1cdfd5>@@@Z@4HA 00000001800197ec     libucrt:onexit.obj
 0002:000087ec       $unwind$_write$fin$0       00000001800197ec     libucrt:write.obj
 0002:000087ec       $unwind$?fin$0@?0???$?RV<lambda_b521505b218e5242e90febf6bfebc422>@@AEAV<lambda_6978c1fb23f02e42e1d9e99668cc68aa>@@V<lambda_314360699dd331753a4119843814e9a7>@@@?$__crt_seh_guarded_call@H@@QEAAH$$QEAV<lambda_b521505b218e5242e90febf6bfebc422>@@AEAV<lambda_6978c1fb23f02e42e1d9e99668cc68aa>@@$$QEAV<lambda_314360699dd331753a4119843814e9a7>@@@Z@4HA 00000001800197ec     libucrt:commit.obj
 0002:000087ec       $unwind$?filt$0@?0??common_exit@@YAXHW4_crt_exit_cleanup_mode@@W4_crt_exit_return_mode@@@Z@4HA 00000001800197ec     libucrt:exit.obj
 0002:000087ec       $unwind$?fin$1@?0??common_exit@@YAXHW4_crt_exit_cleanup_mode@@W4_crt_exit_return_mode@@@Z@4HA 00000001800197ec     libucrt:exit.obj
 0002:000087ec       $unwind$?fin$0@?0???$?RV<lambda_46352004c1216016012b18bd6f87e700>@@AEAV<lambda_3bd07e1a1191394380780325891bf33f>@@V<lambda_334532d3f185bcaa59b5be82d7d22bff>@@@?$__crt_seh_guarded_call@X@@QEAAX$$QEAV<lambda_46352004c1216016012b18bd6f87e700>@@AEAV<lambda_3bd07e1a1191394380780325891bf33f>@@$$QEAV<lambda_334532d3f185bcaa59b5be82d7d22bff>@@@Z@4HA 00000001800197ec     libucrt:per_thread_data.obj
 0002:000087ec       $unwind$?fin$0@?0???$?RV<lambda_9431c60049192bb82166e0947f95a2e9>@@AEAV<lambda_85fa512c59a4d94d4a89f575eefd92a6>@@V<lambda_487febba6ca58d9ce348204d67e1dba3>@@@?$__crt_seh_guarded_call@X@@QEAAX$$QEAV<lambda_9431c60049192bb82166e0947f95a2e9>@@AEAV<lambda_85fa512c59a4d94d4a89f575eefd92a6>@@$$QEAV<lambda_487febba6ca58d9ce348204d67e1dba3>@@@Z@4HA 00000001800197ec     libucrt:wsetlocale.obj
 0002:000087ec       $unwind$?fin$0@?0??dllmain_crt_process_detach@@YAH_N@Z@4HA 00000001800197ec     LIBCMT:dll_dllmain.obj
 0002:000087ec       $unwind$__acrt_initialize_lowio$fin$0 00000001800197ec     libucrt:ioinit.obj
 0002:000087ec       $unwind$_fcloseall$fin$0   00000001800197ec     libucrt:closeall.obj
 0002:000087ec       $unwind$raise$fin$0        00000001800197ec     libucrt:signal.obj
 0002:000087ec       $unwind$?fin$0@?0???$?RV<lambda_fb3a7dec4e47f37f22dae91bb15c9095>@@AEAV<lambda_698284760c8add0bfb0756c19673e34b>@@V<lambda_dfb8eca1e75fef3034a8fb18dd509707>@@@?$__crt_seh_guarded_call@X@@QEAAX$$QEAV<lambda_fb3a7dec4e47f37f22dae91bb15c9095>@@AEAV<lambda_698284760c8add0bfb0756c19673e34b>@@$$QEAV<lambda_dfb8eca1e75fef3034a8fb18dd509707>@@@Z@4HA 00000001800197ec     libucrt:per_thread_data.obj
 0002:000087ec       $unwind$?fin$0@?0??update_thread_multibyte_data_internal@@YAPEAU__crt_multibyte_data@@QEAU__acrt_ptd@@QEAU1@@Z@4HA 00000001800197ec     libucrt:mbctype.obj
 0002:000087ec       $unwind$_ctrlfp$filt$0     00000001800197ec     libucrt:fpctrl.obj
 0002:000087ec       $unwind$?fin$0@?0???$?RV<lambda_5e887d1dcbef67a5eb4283622ba103bf>@@AEAV<lambda_4466841279450cc726390878d4a41900>@@V<lambda_341c25c0346d94847f1f3c463c57e077>@@@?$__crt_seh_guarded_call@X@@QEAAX$$QEAV<lambda_5e887d1dcbef67a5eb4283622ba103bf>@@AEAV<lambda_4466841279450cc726390878d4a41900>@@$$QEAV<lambda_341c25c0346d94847f1f3c463c57e077>@@@Z@4HA 00000001800197ec     libucrt:per_thread_data.obj
 0002:000087ec       $unwind$fclose$fin$0       00000001800197ec     libucrt:fclose.obj
 0002:000087ec       $unwind$__acrt_lowio_ensure_fh_exists$fin$0 00000001800197ec     libucrt:osfinfo.obj
 0002:000087ec       $unwind$common_flush_all$fin$1 00000001800197ec     libucrt:fflush.obj
 0002:000087ec       $unwind$_query_new_handler$fin$0 00000001800197ec     libucrt:new_handler.obj
 0002:000087ec       $unwind$common_flush_all$fin$0 00000001800197ec     libucrt:fflush.obj
 0002:000087ec       $unwind$_IsNonwritableInCurrentImage$filt$0 00000001800197ec     LIBCMT:pesect.obj
 0002:000087ec       $unwind$?fin$0@?0???$?RV<lambda_bfedae4ebbf01fab1bb6dcc6a9e276e0>@@AEAV<lambda_2fe9b910cf3cbf4a0ab98a02ba45b3ec>@@V<lambda_237c231691f317818eb88cc1d5d642d6>@@@?$__crt_seh_guarded_call@H@@QEAAH$$QEAV<lambda_bfedae4ebbf01fab1bb6dcc6a9e276e0>@@AEAV<lambda_2fe9b910cf3cbf4a0ab98a02ba45b3ec>@@$$QEAV<lambda_237c231691f317818eb88cc1d5d642d6>@@@Z@4HA 00000001800197ec     libucrt:close.obj
 0002:000087f4       $unwind$_fcloseall         00000001800197f4     libucrt:closeall.obj
 0002:00008818       $unwind$_close             0000000180019818     libucrt:close.obj
 0002:00008818       $unwind$_commit            0000000180019818     libucrt:commit.obj
 0002:00008820       $unwind$??$?RV<lambda_b521505b218e5242e90febf6bfebc422>@@AEAV<lambda_6978c1fb23f02e42e1d9e99668cc68aa>@@V<lambda_314360699dd331753a4119843814e9a7>@@@?$__crt_seh_guarded_call@H@@QEAAH$$QEAV<lambda_b521505b218e5242e90febf6bfebc422>@@AEAV<lambda_6978c1fb23f02e42e1d9e99668cc68aa>@@$$QEAV<lambda_314360699dd331753a4119843814e9a7>@@@Z 0000000180019820     libucrt:commit.obj
 0002:00008844       $unwind$_write             0000000180019844     libucrt:write.obj
 0002:00008874       $unwind$_write_nolock      0000000180019874     libucrt:write.obj
 0002:0000888c       $unwind$?write_double_translated_ansi_nolock@@YA?AUwrite_result@?A0x17268360@@HQEBDI@Z 000000018001988c     libucrt:write.obj
 0002:000088ac       $unwind$?write_text_utf16le_nolock@@YA?AUwrite_result@?A0x17268360@@HQEBDI@Z 00000001800198ac     libucrt:write.obj
 0002:000088ac       $unwind$?write_text_ansi_nolock@@YA?AUwrite_result@?A0x17268360@@HQEBDI@Z 00000001800198ac     libucrt:write.obj
 0002:000088cc       $unwind$?write_text_utf8_nolock@@YA?AUwrite_result@?A0x17268360@@HQEBDI@Z 00000001800198cc     libucrt:write.obj
 0002:000088f0       $xdatasym                  00000001800198f0     libucrt:log10.obj
 0002:000088fc       $unwind$fclose             00000001800198fc     libucrt:fclose.obj
 0002:00008920       $unwind$__report_gsfailure 0000000180019920     LIBCMT:gs_report.obj
 0002:00008920       $unwind$_putwch_nolock     0000000180019920     libucrt:putwch.obj
 0002:00008928       $unwind$_handle_error      0000000180019928     libucrt:libm_error.obj
 0002:00008948       $unwind$__acrt_initialize_fma3 0000000180019948     libucrt:fma3_available.obj
 0002:00008950       $unwind$_log_special_common 0000000180019950     libucrt:log_special.obj
 0002:0000895c       $unwind$_invalid_parameter_noinfo 000000018001995c     libucrt:invalid_parameter.obj
 0002:0000895c       $unwind$_log10_special     000000018001995c     libucrt:log_special.obj
 0002:00008964       $unwind$??$?RV<lambda_bfedae4ebbf01fab1bb6dcc6a9e276e0>@@AEAV<lambda_2fe9b910cf3cbf4a0ab98a02ba45b3ec>@@V<lambda_237c231691f317818eb88cc1d5d642d6>@@@?$__crt_seh_guarded_call@H@@QEAAH$$QEAV<lambda_bfedae4ebbf01fab1bb6dcc6a9e276e0>@@AEAV<lambda_2fe9b910cf3cbf4a0ab98a02ba45b3ec>@@$$QEAV<lambda_237c231691f317818eb88cc1d5d642d6>@@@Z 0000000180019964     libucrt:close.obj
 0002:00008988       $xdatasym                  0000000180019988     libucrt:fpsr.obj
 0002:00008990       $unwind$__dcrt_lowio_initialize_console_output 0000000180019990     libucrt:initcon.obj
 0002:00008990       $unwind$_raise_exc         0000000180019990     libucrt:fpexcept.obj
 0002:00008998       $unwind$_raise_exc_ex      0000000180019998     libucrt:fpexcept.obj
 0002:000089ac       $unwind$_ctrlfp            00000001800199ac     libucrt:fpctrl.obj
 0002:000089d4       $unwind$_IsNonwritableInCurrentImage 00000001800199d4     LIBCMT:pesect.obj
 0002:000089f8       $unwind$__GSHandlerCheckCommon 00000001800199f8     LIBCMT:_gshandler_.obj
 0002:00008a00       $xdatasym                  0000000180019a00     LIBCMT:_amdsecgs_.obj
 0002:00008a04       $unwind$__report_securityfailure 0000000180019a04     LIBCMT:gs_report.obj
 0002:00008a0c       $unwind$capture_current_context 0000000180019a0c     LIBCMT:gs_report.obj
 0002:00008a18       $unwind$capture_previous_context 0000000180019a18     LIBCMT:gs_report.obj
 0002:00008a28       $xdatasym                  0000000180019a28     libvcruntime:memcmp.obj
 0002:00008a30       .edata                     0000000180019a30     ConEmuLn.x64.exp
 0002:00008a58       rgpv                       0000000180019a58     ConEmuLn.x64.exp
 0002:00008a94       rgszName                   0000000180019a94     ConEmuLn.x64.exp
 0002:00008ad0       rgwOrd                     0000000180019ad0     ConEmuLn.x64.exp
 0002:00008aee       szName                     0000000180019aee     ConEmuLn.x64.exp
 0002:00008aff       $N00001                    0000000180019aff     ConEmuLn.x64.exp
 0002:00008b0e       $N00002                    0000000180019b0e     ConEmuLn.x64.exp
 0002:00008b1d       $N00003                    0000000180019b1d     ConEmuLn.x64.exp
 0002:00008b23       $N00004                    0000000180019b23     ConEmuLn.x64.exp
 0002:00008b2d       $N00005                    0000000180019b2d     ConEmuLn.x64.exp
 0002:00008b38       $N00006                    0000000180019b38     ConEmuLn.x64.exp
 0002:00008b40       $N00007                    0000000180019b40     ConEmuLn.x64.exp
 0002:00008b49       $N00008                    0000000180019b49     ConEmuLn.x64.exp
 0002:00008b58       $N00009                    0000000180019b58     ConEmuLn.x64.exp
 0002:00008b69       $N00010                    0000000180019b69     ConEmuLn.x64.exp
 0002:00008b7b       $N00011                    0000000180019b7b     ConEmuLn.x64.exp
 0002:00008b89       $N00012                    0000000180019b89     ConEmuLn.x64.exp
 0002:00008b94       $N00013                    0000000180019b94     ConEmuLn.x64.exp
 0002:00008ba0       $N00014                    0000000180019ba0     ConEmuLn.x64.exp
 0002:00008baf       $N00015                    0000000180019baf     ConEmuLn.x64.exp
 0002:0000906c       .idata$6                   000000018001a06c     kernel32:KERNEL32.dll
 0002:0000909e       .idata$6                   000000018001a09e     user32:USER32.dll
 0002:00009100       .idata$6                   000000018001a100     gdi32:GDI32.dll
 0002:00009160       .idata$6                   000000018001a160     advapi32:ADVAPI32.dll
 0002:000091b0       .idata$6                   000000018001a1b0     version:VERSION.dll
 0003:00000200       ?__vcrt_flsindex@@3KA      000000018001b200     libvcruntime:per_thread_data.obj
 0003:00000208       errno_no_memory            000000018001b208     libucrt:errno.obj
 0003:0000020c       doserrno_no_memory         000000018001b20c     libucrt:errno.obj
 0003:00000218       __acrt_flsindex            000000018001b218     libucrt:per_thread_data.obj
 0003:000005c0       _mbctypes                  000000018001b5c0     libucrt:mbctype.obj
 0003:000006d0       _mbcasemaps                000000018001b6d0     libucrt:mbctype.obj
 0003:000007d0       __rgctypeflag              000000018001b7d0     libucrt:mbctype.obj
 0003:000007e0       __rgcode_page_info         000000018001b7e0     libucrt:mbctype.obj
 0003:00000a90       ?dazSupported@?1??_ctrlfp@@9@9 000000018001ba90     libucrt:fpctrl.obj
 0003:00000ab8       ?gh_UnknownTerminatedThread@@3PEAXEA 000000018001bab8     WThreads.obj
 0003:00000ac0       ?g_Threads@@3PAUConEmuThreadInfo@@A 000000018001bac0     WThreads.obj
 0003:000092e8       ?gfRegisterBackground@@3P6AHPEAURegisterBackgroundArg@@@ZEA 00000001800242e8     ConEmuLn.obj
 0003:000092f8       ?bWasRegistered@?1??StartPlugin@@YAXH@Z@4_NA 00000001800242f8     ConEmuLn.obj
 0003:00009310       ?gszRootKeyW995@@3PEA_WEA  0000000180024310     ConEmuLn995.obj
 0003:00009318       ?szMenu@?1??GetPluginInfoW995@@YAXPEAX@Z@4PAPEA_WA 0000000180024318     ConEmuLn995.obj
 0003:00009320       ?szMenu1@?1??GetPluginInfoW995@@YAXPEAX@Z@4PA_WA 0000000180024320     ConEmuLn995.obj
 0003:00009530       ?szMenu@?1??GetPluginInfoW1900@@YAXPEAX@Z@4PAPEA_WA 0000000180024530     ConEmuLn1900.obj
 0003:00009540       ?szMenu1@?1??GetPluginInfoW1900@@YAXPEAX@Z@4PA_WA 0000000180024540     ConEmuLn1900.obj
 0003:00009750       ?szMenu@?1??GetPluginInfoW2800@@YAXPEAX@Z@4PAPEA_WA 0000000180024750     ConEmuLn2800.obj
 0003:00009760       ?szMenu1@?1??GetPluginInfoW2800@@YAXPEAX@Z@4PA_WA 0000000180024760     ConEmuLn2800.obj
 0003:00009970       ?gszRootKeyA@@3PEA_WEA     0000000180024970     ConEmuLnA.obj
 0003:00009978       ?szMenu@?1??GetPluginInfo@@9@4PAPEADA 0000000180024978     ConEmuLnA.obj
 0003:00009980       ?szMenu1@?1??GetPluginInfo@@9@4PADA 0000000180024980     ConEmuLnA.obj
 0003:00009aa0       ?__proc_attached@@3HA      0000000180024aa0     LIBCMT:dll_dllmain.obj
 0003:00009ab8       ?module_local_atexit_table@@3U_onexit_table_t@@A 0000000180024ab8     LIBCMT:utility.obj
 0003:00009ad0       ?module_local_at_quick_exit_table@@3U_onexit_table_t@@A 0000000180024ad0     LIBCMT:utility.obj
 0003:00009ae8       ?is_initialized_as_dll@@3_NA 0000000180024ae8     LIBCMT:utility.obj
 0003:00009b20       ?__vcrt_startup_thread_ptd@@3U__vcrt_ptd@@A 0000000180024b20     libvcruntime:per_thread_data.obj
 0003:00009b98       __vcrt_lock_table          0000000180024b98     libvcruntime:locks.obj
 0003:00009bc0       __vcrt_locks_initialized   0000000180024bc0     libvcruntime:locks.obj
 0003:00009bd0       ?module_handles@@3PAPEAUHINSTANCE__@@A 0000000180024bd0     libvcruntime:winapi_downlevel.obj
 0003:00009bf0       ?encoded_function_pointers@@3PAPEAXA 0000000180024bf0     libvcruntime:winapi_downlevel.obj
 0003:00009c88       ?heap@@3V_HeapManager@@A   0000000180024c88     libvcruntime:undname.obj
 0003:00009cb0       c_termination_complete     0000000180024cb0     libucrt:exit.obj
 0003:00009cb8       thread_local_exit_callback_func 0000000180024cb8     libucrt:exit.obj
 0003:00009cc0       ?c_exit_complete@?5??common_exit@@YAXHW4_crt_exit_cleanup_mode@@W4_crt_exit_return_mode@@@Z@4_NA 0000000180024cc0     libucrt:exit.obj
 0003:00009cd0       ?program_name@?5???$common_configure_argv@D@@YAHW4_crt_argv_mode@@@Z@4PADA 0000000180024cd0     libucrt:argv_parsing.obj
 0003:00009e28       __acrt_invalid_parameter_handler 0000000180024e28     libucrt:invalid_parameter.obj
 0003:00009e40       __acrt_lock_table          0000000180024e40     libucrt:locks.obj
 0003:0000a048       __acrt_locks_initialized   0000000180025048     libucrt:locks.obj
 0003:0000a050       module_handles             0000000180025050     libucrt:winapi_thunks.obj
 0003:0000a0f0       encoded_function_pointers  00000001800250f0     libucrt:winapi_thunks.obj
 0003:0000a1e8       ?state_cache@?1??__acrt_is_packaged_app@@9@4JA 00000001800251e8     libucrt:winapi_thunks.obj
 0003:0000a208       fSystemSet                 0000000180025208     libucrt:mbctype.obj
 0003:0000a20c       ?initialized@?1??__acrt_initialize_multibyte@@9@4_NA 000000018002520c     libucrt:mbctype.obj
 0003:0000a658       __acrt_new_handler         0000000180025658     libucrt:new_handler.obj
 0003:0000a660       ctrlc_action               0000000180025660     libucrt:signal.obj
 0003:0000a668       ctrlbreak_action           0000000180025668     libucrt:signal.obj
 0003:0000a670       abort_action               0000000180025670     libucrt:signal.obj
 0003:0000a678       term_action                0000000180025678     libucrt:signal.obj
 0003:0000a680       user_matherr               0000000180025680     libucrt:matherr.obj
 0003:0000a698       __acrt_global_new_mode     0000000180025698     libucrt:new_mode.obj
 0003:0000a6b8       __acrt_app_type            00000001800256b8     libucrt:report_runtime_error.obj
 0003:0000a6d0       GS_ExceptionRecord         00000001800256d0     LIBCMT:gs_report.obj
 0003:0000a770       GS_ContextRecord           0000000180025770     LIBCMT:gs_report.obj
 0004:00000000       $pdata$?ExitFARW3@@YAXPEAX@Z 0000000180026000     ConEmuLn.obj
 0004:00000000       $pdata$ExitFARW            0000000180026000     ConEmuLn.obj
 0004:0000000c       $pdata$?ChangeExports@@YA_NPEBUExportFunc@@PEAUHINSTANCE__@@@Z 000000018002600c     ConEmuLn.obj
 0004:00000018       $pdata$?ExitPlugin@@YAXXZ  0000000180026018     ConEmuLn.obj
 0004:00000024       $pdata$?LoadFarVersion@@YAHXZ 0000000180026024     ConEmuLn.obj
 0004:00000030       $pdata$?LoadModuleVersion@@YA_NPEB_WAEAUtagVS_FIXEDFILEINFO@@PEA_W_K@Z 0000000180026030     ConEmuLn.obj
 0004:0000003c       $pdata$?OnConEmuLoaded@@YAXPEAUConEmuLoadedArg@@@Z 000000018002603c     ConEmuLn.obj
 0004:00000048       $pdata$?OpenPluginWcmn@@YAPEAXH_J@Z 0000000180026048     ConEmuLn.obj
 0004:00000054       $pdata$?OpenW@@YAPEAXPEBX@Z 0000000180026054     ConEmuLn.obj
 0004:00000060       $pdata$?PaintBack@@YAXPEAUHDC__@@KUtagRECT@@@Z 0000000180026060     ConEmuLn.obj
 0004:0000006c       $pdata$?PaintConEmuBackground@@YAHPEAUPaintBackgroundArg@@@Z 000000018002606c     ConEmuLn.obj
 0004:00000078       $pdata$?PaintLines@@YAXPEAUHDC__@@KHHHHH@Z 0000000180026078     ConEmuLn.obj
 0004:00000084       $pdata$?SettingsLoad@@YAXXZ 0000000180026084     ConEmuLn.obj
 0004:00000090       $pdata$?SettingsLoadReg@@YAXPEB_W@Z 0000000180026090     ConEmuLn.obj
 0004:0000009c       $pdata$?SettingsSaveReg@@YAXPEB_W@Z 000000018002609c     ConEmuLn.obj
 0004:000000a8       $pdata$?StartPlugin@@YAXH@Z 00000001800260a8     ConEmuLn.obj
 0004:000000b4       $pdata$?StringCchCatW@@YAJPEA_W_KPEB_W@Z 00000001800260b4     ConEmuLn.obj
 0004:000000c0       $pdata$?StringCchCopyW@@YAJPEA_W_KPEB_W@Z 00000001800260c0     ConEmuLn.obj
 0004:000000cc       $pdata$DllMain             00000001800260cc     ConEmuLn.obj
 0004:000000d8       $pdata$SetStartupInfoW     00000001800260d8     ConEmuLn.obj
 0004:000000e4       $pdata$?ConfigDlgProc@@YA_JPEAXHH_J@Z 00000001800260e4     ConEmuLn995.obj
 0004:000000f0       $pdata$?ConfigureProc@@YAHH@Z 00000001800260f0     ConEmuLn995.obj
 0004:000000fc       $pdata$?ExitFARW995@@YAXXZ 00000001800260fc     ConEmuLn995.obj
 0004:00000108       $pdata$?GetPluginInfoW995@@YAXPEAX@Z 0000000180026108     ConEmuLn995.obj
 0004:00000114       $pdata$?SetStartupInfoW995@@YAXPEAX@Z 0000000180026114     ConEmuLn995.obj
 0004:00000120       $pdata$?ConfigDlgProc@@YA_JPEAXHH0@Z 0000000180026120     ConEmuLn1900.obj
 0004:0000012c       $pdata$?ConfigureProc@@YAHH@Z 000000018002612c     ConEmuLn1900.obj
 0004:00000138       $pdata$?ExitFARW1900@@YAXXZ 0000000180026138     ConEmuLn1900.obj
 0004:00000144       $pdata$?GetPluginInfoW1900@@YAXPEAX@Z 0000000180026144     ConEmuLn1900.obj
 0004:00000150       $pdata$?SetStartupInfoW1900@@YAXPEAX@Z 0000000180026150     ConEmuLn1900.obj
 0004:0000015c       $pdata$?SettingsLoadW1900@@YAXXZ 000000018002615c     ConEmuLn1900.obj
 0004:00000168       $pdata$?SettingsSaveW1900@@YAXXZ 0000000180026168     ConEmuLn1900.obj
 0004:00000174       $pdata$?ConfigDlgProc@@YA_JPEAX_J10@Z 0000000180026174     ConEmuLn2800.obj
 0004:00000180       $pdata$?ConfigureProc@@YAHH@Z 0000000180026180     ConEmuLn2800.obj
 0004:0000018c       $pdata$?ExitFARW2800@@YAXXZ 000000018002618c     ConEmuLn2800.obj
 0004:00000198       $pdata$?GetPluginInfoW2800@@YAXPEAX@Z 0000000180026198     ConEmuLn2800.obj
 0004:000001a4       $pdata$?SetStartupInfoW2800@@YAXPEAX@Z 00000001800261a4     ConEmuLn2800.obj
 0004:000001b0       $pdata$?SettingsLoadW2800@@YAXXZ 00000001800261b0     ConEmuLn2800.obj
 0004:000001bc       $pdata$?SettingsSaveW2800@@YAXXZ 00000001800261bc     ConEmuLn2800.obj
 0004:000001c8       $pdata$GetGlobalInfoW      00000001800261c8     ConEmuLn2800.obj
 0004:000001d4       $pdata$?ConfigDlgProc@@YA_JPEAXHH_J@Z 00000001800261d4     ConEmuLnA.obj
 0004:000001e0       $pdata$?ConfigureProc@@YAHH@Z 00000001800261e0     ConEmuLnA.obj
 0004:000001ec       $pdata$ExitFAR             00000001800261ec     ConEmuLnA.obj
 0004:000001f8       $pdata$GetMinFarVersion    00000001800261f8     ConEmuLnA.obj
 0004:00000204       $pdata$GetPluginInfo       0000000180026204     ConEmuLnA.obj
 0004:00000210       $pdata$OpenPlugin          0000000180026210     ConEmuLnA.obj
 0004:0000021c       $pdata$SetStartupInfo      000000018002621c     ConEmuLnA.obj
 0004:00000228       $pdata$?HeapDeinitialize@@YAXXZ 0000000180026228     Memory.obj
 0004:00000234       $pdata$?HeapInitialize@@YA_NXZ 0000000180026234     Memory.obj
 0004:00000240       $pdata$?xf_free@@YAXPEAX@Z 0000000180026240     Memory.obj
 0004:00000258       $pdata$?dllmain_crt_dispatch@@YAHQEAUHINSTANCE__@@KQEAX@Z 0000000180026258     LIBCMT:dll_dllmain.obj
 0004:00000264       $pdata$?dllmain_crt_process_attach@@YAHQEAUHINSTANCE__@@QEAX@Z 0000000180026264     LIBCMT:dll_dllmain.obj
 0004:00000270       $pdata$?dllmain_crt_process_detach@@YAH_N@Z 0000000180026270     LIBCMT:dll_dllmain.obj
 0004:0000027c       $pdata$?dllmain_dispatch@@YAHQEAUHINSTANCE__@@KQEAX@Z 000000018002627c     LIBCMT:dll_dllmain.obj
 0004:00000288       $pdata$?dllmain_raw@@YAHQEAUHINSTANCE__@@KQEAX@Z 0000000180026288     LIBCMT:dll_dllmain.obj
 0004:00000294       $pdata$_DllMainCRTStartup  0000000180026294     LIBCMT:dll_dllmain.obj
 0004:000002a0       $pdata$__scrt_acquire_startup_lock 00000001800262a0     LIBCMT:utility.obj
 0004:000002ac       $pdata$__scrt_dllmain_after_initialize_c 00000001800262ac     LIBCMT:utility.obj
 0004:000002b8       $pdata$__scrt_dllmain_before_initialize_c 00000001800262b8     LIBCMT:utility.obj
 0004:000002c4       $pdata$__scrt_dllmain_crt_thread_attach 00000001800262c4     LIBCMT:utility.obj
 0004:000002d0       $pdata$__scrt_dllmain_crt_thread_detach 00000001800262d0     LIBCMT:utility.obj
 0004:000002dc       $pdata$__scrt_dllmain_exception_filter 00000001800262dc     LIBCMT:utility.obj
 0004:000002e8       $pdata$__scrt_dllmain_uninitialize_c 00000001800262e8     LIBCMT:utility.obj
 0004:000002f4       $pdata$__scrt_dllmain_uninitialize_critical 00000001800262f4     LIBCMT:utility.obj
 0004:00000300       $pdata$__scrt_initialize_crt 0000000180026300     LIBCMT:utility.obj
 0004:0000030c       $pdata$__scrt_initialize_onexit_tables 000000018002630c     LIBCMT:utility.obj
 0004:00000318       $pdata$__scrt_is_nonwritable_in_current_image 0000000180026318     LIBCMT:utility.obj
 0004:00000324       $pdata$__scrt_release_startup_lock 0000000180026324     LIBCMT:utility.obj
 0004:00000330       $pdata$__scrt_uninitialize_crt 0000000180026330     LIBCMT:utility.obj
 0004:0000033c       $pdata$_onexit             000000018002633c     LIBCMT:utility.obj
 0004:00000348       $pdata$atexit              0000000180026348     LIBCMT:utility.obj
 0004:00000354       $pdata$__security_init_cookie 0000000180026354     LIBCMT:gs_support.obj
 0004:00000360       $pdata$__scrt_initialize_default_local_stdio_options 0000000180026360     LIBCMT:default_local_stdio_options.obj
 0004:0000036c       $pdata$__scrt_fastfail     000000018002636c     LIBCMT:utility_desktop.obj
 0004:00000378       $pdata$_RTC_Initialize     0000000180026378     LIBCMT:_initsect_.obj
 0004:00000384       $pdata$_RTC_Terminate      0000000180026384     LIBCMT:_initsect_.obj
 0004:00000390       $pdata$__isa_available_init 0000000180026390     LIBCMT:_cpu_disp_.obj
 0004:0000039c       $pdata$__C_specific_handler 000000018002639c     libvcruntime:_chandler_.obj
 0004:000003c0       $pdata$__vcrt_initialize   00000001800263c0     libvcruntime:initialization.obj
 0004:000003cc       $pdata$__vcrt_thread_attach 00000001800263cc     libvcruntime:initialization.obj
 0004:000003d8       $pdata$__vcrt_thread_detach 00000001800263d8     libvcruntime:initialization.obj
 0004:000003e4       $pdata$__vcrt_uninitialize 00000001800263e4     libvcruntime:initialization.obj
 0004:000003f0       $pdata$__vcrt_uninitialize_critical 00000001800263f0     libvcruntime:initialization.obj
 0004:000003fc       $pdata$__std_type_info_destroy_list 00000001800263fc     libvcruntime:std_type_info.obj
 0004:00000438       $pdata$__vcrt_freefls      0000000180026438     libvcruntime:per_thread_data.obj
 0004:00000444       $pdata$__vcrt_freeptd      0000000180026444     libvcruntime:per_thread_data.obj
 0004:00000450       $pdata$__vcrt_getptd_noexit 0000000180026450     libvcruntime:per_thread_data.obj
 0004:0000045c       $pdata$__vcrt_initialize_ptd 000000018002645c     libvcruntime:per_thread_data.obj
 0004:00000468       $pdata$__vcrt_uninitialize_ptd 0000000180026468     libvcruntime:per_thread_data.obj
 0004:00000474       $pdata$__vcrt_initialize_locks 0000000180026474     libvcruntime:locks.obj
 0004:00000480       $pdata$__vcrt_uninitialize_locks 0000000180026480     libvcruntime:locks.obj
 0004:0000048c       $pdata$?try_get_function@@YAPEAXW4function_id@?A0x679b24ab@@QEBDQEBW4module_id@2@2@Z 000000018002648c     libvcruntime:winapi_downlevel.obj
 0004:00000498       $pdata$__vcrt_FlsAlloc     0000000180026498     libvcruntime:winapi_downlevel.obj
 0004:000004a4       $pdata$__vcrt_FlsFree      00000001800264a4     libvcruntime:winapi_downlevel.obj
 0004:000004b0       $pdata$__vcrt_FlsGetValue  00000001800264b0     libvcruntime:winapi_downlevel.obj
 0004:000004bc       $pdata$__vcrt_FlsSetValue  00000001800264bc     libvcruntime:winapi_downlevel.obj
 0004:000004c8       $pdata$__vcrt_InitializeCriticalSectionEx 00000001800264c8     libvcruntime:winapi_downlevel.obj
 0004:000004d4       $pdata$__vcrt_uninitialize_winapi_thunks 00000001800264d4     libvcruntime:winapi_downlevel.obj
 0004:000004e0       $pdata$??$parse_integer@KV?$c_string_character_source@D@__crt_strtox@@@__crt_strtox@@YAKQEAU__crt_locale_pointers@@V?$c_string_character_source@D@0@H_N@Z 00000001800264e0     libucrt:strtox.obj
 0004:000004ec       $pdata$??$parse_integer@KV?$c_string_character_source@_W@__crt_strtox@@@__crt_strtox@@YAKQEAU__crt_locale_pointers@@V?$c_string_character_source@_W@0@H_N@Z 00000001800264ec     libucrt:strtox.obj
 0004:000004f8       $pdata$??0_LocaleUpdate@@QEAA@QEAU__crt_locale_pointers@@@Z 00000001800264f8     libucrt:strtox.obj
 0004:00000504       $pdata$strtoul             0000000180026504     libucrt:strtox.obj
 0004:00000510       $pdata$wcstoul             0000000180026510     libucrt:strtox.obj
 0004:0000051c       $pdata$_initterm           000000018002651c     libucrt:initterm.obj
 0004:00000528       $pdata$_initterm_e         0000000180026528     libucrt:initterm.obj
 0004:00000534       $pdata$_seh_filter_exe     0000000180026534     libucrt:exception_filter.obj
 0004:00000540       $pdata$?common_exit@@YAXHW4_crt_exit_cleanup_mode@@W4_crt_exit_return_mode@@@Z 0000000180026540     libucrt:exit.obj
 0004:0000054c       $pdata$?exit_or_terminate_process@@YAXI@Z 000000018002654c     libucrt:exit.obj
 0004:00000558       $pdata$?try_cor_exit_process@@YAXI@Z 0000000180026558     libucrt:exit.obj
 0004:00000564       $pdata$??$parse_command_line@D@@YAXPEADPEAPEAD0PEA_K2@Z 0000000180026564     libucrt:argv_parsing.obj
 0004:00000570       $pdata$__acrt_allocate_buffer_for_argv 0000000180026570     libucrt:argv_parsing.obj
 0004:0000057c       $pdata$_configure_narrow_argv 000000018002657c     libucrt:argv_parsing.obj
 0004:00000588       $pdata$??$common_initialize_environment_nolock@D@@YAHXZ 0000000180026588     libucrt:environment_initialization.obj
 0004:00000594       $pdata$??$create_environment@D@@YAQEAPEADQEAD@Z 0000000180026594     libucrt:environment_initialization.obj
 0004:000005a0       $pdata$??$free_environment@D@@YAXQEAPEAD@Z 00000001800265a0     libucrt:environment_initialization.obj
 0004:000005a0       $pdata$??$free_environment@_W@@YAXQEAPEA_W@Z 00000001800265a0     libucrt:environment_initialization.obj
 0004:000005ac       $pdata$??$uninitialize_environment_internal@D@@YAXAEAPEAPEAD@Z 00000001800265ac     libucrt:environment_initialization.obj
 0004:000005b8       $pdata$??$uninitialize_environment_internal@_W@@YAXAEAPEAPEA_W@Z 00000001800265b8     libucrt:environment_initialization.obj
 0004:000005c4       $pdata$__dcrt_uninitialize_environments_nolock 00000001800265c4     libucrt:environment_initialization.obj
 0004:000005d0       $pdata$??$?RV<lambda_b8c45f8f788dd370798f47cfe8ac3a86>@@AEAV<lambda_4e60a939b0d047cfe11ddc22648dfba9>@@V<lambda_332c3edc96d0294ec56c57d38c1cdfd5>@@@?$__crt_seh_guarded_call@H@@QEAAH$$QEAV<lambda_b8c45f8f788dd370798f47cfe8ac3a86>@@AEAV<lambda_4e60a939b0d047cfe11ddc22648dfba9>@@$$QEAV<lambda_332c3edc96d0294ec56c57d38c1cdfd5>@@@Z 00000001800265d0     libucrt:onexit.obj
 0004:000005dc       $pdata$??$?RV<lambda_e24bbb7b643b32fcea6fa61b31d4c984>@@AEAV<lambda_275893d493268fdec8709772e3fcec0e>@@V<lambda_9d71df4d7cf3f480f8d633942495c3b0>@@@?$__crt_seh_guarded_call@H@@QEAAH$$QEAV<lambda_e24bbb7b643b32fcea6fa61b31d4c984>@@AEAV<lambda_275893d493268fdec8709772e3fcec0e>@@$$QEAV<lambda_9d71df4d7cf3f480f8d633942495c3b0>@@@Z 00000001800265dc     libucrt:onexit.obj
 0004:000005e8       $pdata$??R<lambda_4e60a939b0d047cfe11ddc22648dfba9>@@QEBAHXZ 00000001800265e8     libucrt:onexit.obj
 0004:000005f4       $pdata$_execute_onexit_table 00000001800265f4     libucrt:onexit.obj
 0004:00000600       $pdata$_register_onexit_function 0000000180026600     libucrt:onexit.obj
 0004:0000060c       $pdata$initialize_c        000000018002660c     libucrt:initialization.obj
 0004:00000618       $pdata$uninitialize_environment 0000000180026618     libucrt:initialization.obj
 0004:00000624       $pdata$initialize_pointers 0000000180026624     libucrt:initialization.obj
 0004:00000630       $pdata$uninitialize_allocated_memory 0000000180026630     libucrt:initialization.obj
 0004:0000063c       $pdata$??$uninitialize@V<lambda_30a498feb8538b5c3153c22026e33470>@@@?$dual_state_global@PEAU__crt_multibyte_data@@@__crt_state_management@@QEAAX$$QEAV<lambda_30a498feb8538b5c3153c22026e33470>@@@Z 000000018002663c     libucrt:initialization.obj
 0004:00000648       $pdata$__acrt_thread_attach 0000000180026648     libucrt:initialization.obj
 0004:00000654       $pdata$__acrt_thread_detach 0000000180026654     libucrt:initialization.obj
 0004:00000660       $pdata$__acrt_uninitialize_critical 0000000180026660     libucrt:initialization.obj
 0004:0000066c       $pdata$terminate           000000018002666c     libucrt:terminate.obj
 0004:00000678       $pdata$_free_base          0000000180026678     libucrt:free_base.obj
 0004:00000684       $pdata$_malloc_base        0000000180026684     libucrt:malloc_base.obj
 0004:00000690       $pdata$strcpy_s            0000000180026690     libucrt:strcpy_s.obj
 0004:0000069c       $pdata$abort               000000018002669c     libucrt:abort.obj
 0004:000006a8       $pdata$_calloc_base        00000001800266a8     libucrt:calloc_base.obj
 0004:000006b4       $pdata$__acrt_call_reportfault 00000001800266b4     libucrt:invalid_parameter.obj
 0004:000006c0       $pdata$_invalid_parameter  00000001800266c0     libucrt:invalid_parameter.obj
 0004:000006cc       $pdata$_invalid_parameter_noinfo 00000001800266cc     libucrt:invalid_parameter.obj
 0004:000006d8       $pdata$_invoke_watson      00000001800266d8     libucrt:invalid_parameter.obj
 0004:000006e4       $pdata$__acrt_errno_map_os_error 00000001800266e4     libucrt:errno.obj
 0004:000006f0       $pdata$__doserrno          00000001800266f0     libucrt:errno.obj
 0004:000006fc       $pdata$_errno              00000001800266fc     libucrt:errno.obj
 0004:00000708       $pdata$__pctype_func       0000000180026708     libucrt:ctype.obj
 0004:00000714       $pdata$iswctype            0000000180026714     libucrt:iswctype.obj
 0004:00000720       $pdata$_isctype_l          0000000180026720     libucrt:isctype.obj
 0004:0000072c       $pdata$??$?RV<lambda_46352004c1216016012b18bd6f87e700>@@AEAV<lambda_3bd07e1a1191394380780325891bf33f>@@V<lambda_334532d3f185bcaa59b5be82d7d22bff>@@@?$__crt_seh_guarded_call@X@@QEAAX$$QEAV<lambda_46352004c1216016012b18bd6f87e700>@@AEAV<lambda_3bd07e1a1191394380780325891bf33f>@@$$QEAV<lambda_334532d3f185bcaa59b5be82d7d22bff>@@@Z 000000018002672c     libucrt:per_thread_data.obj
 0004:00000738       $pdata$??$?RV<lambda_5e887d1dcbef67a5eb4283622ba103bf>@@AEAV<lambda_4466841279450cc726390878d4a41900>@@V<lambda_341c25c0346d94847f1f3c463c57e077>@@@?$__crt_seh_guarded_call@X@@QEAAX$$QEAV<lambda_5e887d1dcbef67a5eb4283622ba103bf>@@AEAV<lambda_4466841279450cc726390878d4a41900>@@$$QEAV<lambda_341c25c0346d94847f1f3c463c57e077>@@@Z 0000000180026738     libucrt:per_thread_data.obj
 0004:00000744       $pdata$??$?RV<lambda_72d1df2b273a38828b1ce30cbf4cdab5>@@AEAV<lambda_876a65b173b8412d3a47c70a915b0cf4>@@V<lambda_41932305e351933ebe8f8be3ed8bb5dc>@@@?$__crt_seh_guarded_call@X@@QEAAX$$QEAV<lambda_72d1df2b273a38828b1ce30cbf4cdab5>@@AEAV<lambda_876a65b173b8412d3a47c70a915b0cf4>@@$$QEAV<lambda_41932305e351933ebe8f8be3ed8bb5dc>@@@Z 0000000180026744     libucrt:per_thread_data.obj
 0004:00000750       $pdata$??$?RV<lambda_fb3a7dec4e47f37f22dae91bb15c9095>@@AEAV<lambda_698284760c8add0bfb0756c19673e34b>@@V<lambda_dfb8eca1e75fef3034a8fb18dd509707>@@@?$__crt_seh_guarded_call@X@@QEAAX$$QEAV<lambda_fb3a7dec4e47f37f22dae91bb15c9095>@@AEAV<lambda_698284760c8add0bfb0756c19673e34b>@@$$QEAV<lambda_dfb8eca1e75fef3034a8fb18dd509707>@@@Z 0000000180026750     libucrt:per_thread_data.obj
 0004:0000075c       $pdata$?construct_ptd_array@@YAXQEAU__acrt_ptd@@@Z 000000018002675c     libucrt:per_thread_data.obj
 0004:00000768       $pdata$?destroy_fls@@YAXPEAX@Z 0000000180026768     libucrt:per_thread_data.obj
 0004:00000774       $pdata$?destroy_ptd_array@@YAXQEAU__acrt_ptd@@@Z 0000000180026774     libucrt:per_thread_data.obj
 0004:00000780       $pdata$?replace_current_thread_locale_nolock@@YAXQEAU__acrt_ptd@@QEAU__crt_locale_data@@@Z 0000000180026780     libucrt:per_thread_data.obj
 0004:0000078c       $pdata$__acrt_freeptd      000000018002678c     libucrt:per_thread_data.obj
 0004:00000798       $pdata$__acrt_getptd       0000000180026798     libucrt:per_thread_data.obj
 0004:000007a4       $pdata$__acrt_getptd_head  00000001800267a4     libucrt:per_thread_data.obj
 0004:000007b0       $pdata$__acrt_getptd_noexit 00000001800267b0     libucrt:per_thread_data.obj
 0004:000007bc       $pdata$__acrt_initialize_ptd 00000001800267bc     libucrt:per_thread_data.obj
 0004:000007c8       $pdata$__acrt_uninitialize_ptd 00000001800267c8     libucrt:per_thread_data.obj
 0004:000007d4       $pdata$__acrt_update_locale_info 00000001800267d4     libucrt:locale_update.obj
 0004:000007e0       $pdata$__acrt_update_multibyte_info 00000001800267e0     libucrt:locale_update.obj
 0004:000007ec       $pdata$??$?RV<lambda_9431c60049192bb82166e0947f95a2e9>@@AEAV<lambda_85fa512c59a4d94d4a89f575eefd92a6>@@V<lambda_487febba6ca58d9ce348204d67e1dba3>@@@?$__crt_seh_guarded_call@X@@QEAAX$$QEAV<lambda_9431c60049192bb82166e0947f95a2e9>@@AEAV<lambda_85fa512c59a4d94d4a89f575eefd92a6>@@$$QEAV<lambda_487febba6ca58d9ce348204d67e1dba3>@@@Z 00000001800267ec     libucrt:wsetlocale.obj
 0004:000007f8       $pdata$__acrt_uninitialize_locale 00000001800267f8     libucrt:wsetlocale.obj
 0004:00000804       $pdata$__acrt_initialize_locks 0000000180026804     libucrt:locks.obj
 0004:00000810       $pdata$__acrt_uninitialize_locks 0000000180026810     libucrt:locks.obj
 0004:0000081c       $pdata$?try_get_function@@YAPEAXW4function_id@?A0x391cf84c@@QEBDQEBW4module_id@2@2@Z 000000018002681c     libucrt:winapi_thunks.obj
 0004:00000828       $pdata$__acrt_FlsAlloc     0000000180026828     libucrt:winapi_thunks.obj
 0004:00000834       $pdata$__acrt_FlsFree      0000000180026834     libucrt:winapi_thunks.obj
 0004:00000840       $pdata$__acrt_FlsGetValue  0000000180026840     libucrt:winapi_thunks.obj
 0004:0000084c       $pdata$__acrt_FlsSetValue  000000018002684c     libucrt:winapi_thunks.obj
 0004:00000858       $pdata$__acrt_InitializeCriticalSectionEx 0000000180026858     libucrt:winapi_thunks.obj
 0004:00000864       $pdata$__acrt_LCMapStringEx 0000000180026864     libucrt:winapi_thunks.obj
 0004:00000870       $pdata$__acrt_LocaleNameToLCID 0000000180026870     libucrt:winapi_thunks.obj
 0004:0000087c       $pdata$__acrt_initialize_winapi_thunks 000000018002687c     libucrt:winapi_thunks.obj
 0004:00000888       $pdata$__acrt_is_packaged_app 0000000180026888     libucrt:winapi_thunks.obj
 0004:00000894       $pdata$__acrt_uninitialize_winapi_thunks 0000000180026894     libucrt:winapi_thunks.obj
 0004:000008a0       $pdata$??$common_expand_argv_wildcards@D@@YAHQEAPEADQEAPEAPEAD@Z 00000001800268a0     libucrt:argv_wildcards.obj
 0004:000008ac       $pdata$??$copy_and_add_argument_to_buffer@D@@YAHQEBD0_KAEAV?$argument_list@D@?A0x5f5c8891@@@Z 00000001800268ac     libucrt:argv_wildcards.obj
 0004:000008b8       $pdata$??$expand_argument_wildcards@D@@YAHQEAD0AEAV?$argument_list@D@?A0x5f5c8891@@@Z 00000001800268b8     libucrt:argv_wildcards.obj
 0004:000008c4       $pdata$?expand_if_necessary@?$argument_list@D@?A0x5f5c8891@@AEAAHXZ 00000001800268c4     libucrt:argv_wildcards.obj
 0004:000008d0       $pdata$??$?RV<lambda_efb9b808e93e29b6b799d3875462c817>@@AEAV<lambda_2c5d36f8a66580c563e29092409944b2>@@V<lambda_31e551fca1567ef2425714047646aa90>@@@?$__crt_seh_guarded_call@X@@QEAAX$$QEAV<lambda_efb9b808e93e29b6b799d3875462c817>@@AEAV<lambda_2c5d36f8a66580c563e29092409944b2>@@$$QEAV<lambda_31e551fca1567ef2425714047646aa90>@@@Z 00000001800268d0     libucrt:mbctype.obj
 0004:000008dc       $pdata$??R<lambda_2c5d36f8a66580c563e29092409944b2>@@QEBAXXZ 00000001800268dc     libucrt:mbctype.obj
 0004:000008e8       $pdata$?getSystemCP@@YAHH@Z 00000001800268e8     libucrt:mbctype.obj
 0004:000008f4       $pdata$?setSBCS@@YAXPEAU__crt_multibyte_data@@@Z 00000001800268f4     libucrt:mbctype.obj
 0004:00000900       $pdata$?setSBUpLow@@YAXPEAU__crt_multibyte_data@@@Z 0000000180026900     libucrt:mbctype.obj
 0004:0000090c       $pdata$?setmbcp_internal@@YAHH_NQEAU__acrt_ptd@@QEAPEAU__crt_multibyte_data@@@Z 000000018002690c     libucrt:mbctype.obj
 0004:00000918       $pdata$?update_thread_multibyte_data_internal@@YAPEAU__crt_multibyte_data@@QEAU__acrt_ptd@@QEAU1@@Z 0000000180026918     libucrt:mbctype.obj
 0004:00000924       $pdata$__acrt_initialize_multibyte 0000000180026924     libucrt:mbctype.obj
 0004:00000930       $pdata$__acrt_update_thread_multibyte_data 0000000180026930     libucrt:mbctype.obj
 0004:0000093c       $pdata$_setmbcp_nolock     000000018002693c     libucrt:mbctype.obj
 0004:00000948       $pdata$?x_ismbbtype_l@@YAHPEAU__crt_locale_pointers@@IHH@Z 0000000180026948     libucrt:ismbbyte.obj
 0004:00000954       $pdata$__acrt_initialize_command_line 0000000180026954     libucrt:argv_data.obj
 0004:00000960       $pdata$__dcrt_get_narrow_environment_from_os 0000000180026960     libucrt:get_environment_from_os.obj
 0004:0000096c       $pdata$_recalloc_base      000000018002696c     libucrt:recalloc.obj
 0004:00000978       $pdata$__acrt_initialize_heap 0000000180026978     libucrt:heap_handle.obj
 0004:00000984       $pdata$?initialize_inherited_file_handles_nolock@@YAXXZ 0000000180026984     libucrt:ioinit.obj
 0004:00000990       $pdata$?initialize_stdio_handles_nolock@@YAXXZ 0000000180026990     libucrt:ioinit.obj
 0004:0000099c       $pdata$__acrt_initialize_lowio 000000018002699c     libucrt:ioinit.obj
 0004:000009a8       $pdata$__acrt_uninitialize_lowio 00000001800269a8     libucrt:ioinit.obj
 0004:000009b4       $pdata$__acrt_execute_initializers 00000001800269b4     libucrt:shared_initialization.obj
 0004:000009c0       $pdata$__acrt_execute_uninitializers 00000001800269c0     libucrt:shared_initialization.obj
 0004:000009cc       $pdata$_callnewh           00000001800269cc     libucrt:new_handler.obj
 0004:000009d8       $pdata$_query_new_handler  00000001800269d8     libucrt:new_handler.obj
 0004:000009e4       $pdata$??$?RV<lambda_c36588078e9f5dfd39652860aa6b3aaf>@@AEAV<lambda_ec61778202f4f5fc7e7711acc23c3bca>@@V<lambda_dc9d2797ccde5d239b4a0efae8ebd7db>@@@?$__crt_seh_guarded_call@P6AXH@Z@@QEAAP6AXH@Z$$QEAV<lambda_c36588078e9f5dfd39652860aa6b3aaf>@@AEAV<lambda_ec61778202f4f5fc7e7711acc23c3bca>@@$$QEAV<lambda_dc9d2797ccde5d239b4a0efae8ebd7db>@@@Z 00000001800269e4     libucrt:signal.obj
 0004:000009f0       $pdata$__acrt_get_sigabrt_handler 00000001800269f0     libucrt:signal.obj
 0004:000009fc       $pdata$raise               00000001800269fc     libucrt:signal.obj
 0004:00000a08       $pdata$__acrt_invoke_user_matherr 0000000180026a08     libucrt:matherr.obj
 0004:00000a14       $pdata$_mbtowc_l           0000000180026a14     libucrt:mbtowc.obj
 0004:00000a20       $pdata$_fileno             0000000180026a20     libucrt:fileno.obj
 0004:00000a2c       $pdata$__acrt_initialize_stdio 0000000180026a2c     libucrt:_file.obj
 0004:00000a38       $pdata$__acrt_uninitialize_stdio 0000000180026a38     libucrt:_file.obj
 0004:00000a44       $pdata$_isleadbyte_l       0000000180026a44     libucrt:_wctype.obj
 0004:00000a50       $pdata$__acrt_GetStringTypeA 0000000180026a50     libucrt:getstringtypea.obj
 0004:00000a5c       $pdata$__acrt_free_locale  0000000180026a5c     libucrt:locale_refcounting.obj
 0004:00000a68       $pdata$__acrt_locale_free_lc_time_if_unreferenced 0000000180026a68     libucrt:locale_refcounting.obj
 0004:00000a74       $pdata$__acrt_release_locale_ref 0000000180026a74     libucrt:locale_refcounting.obj
 0004:00000a80       $pdata$__acrt_update_thread_locale_data 0000000180026a80     libucrt:locale_refcounting.obj
 0004:00000a8c       $pdata$_updatetlocinfoEx_nolock 0000000180026a8c     libucrt:locale_refcounting.obj
 0004:00000a98       $pdata$__acrt_locale_free_monetary 0000000180026a98     libucrt:initmon.obj
 0004:00000aa4       $pdata$__acrt_locale_free_numeric 0000000180026aa4     libucrt:initnum.obj
 0004:00000ab0       $pdata$?free_crt_array_internal@@YAXQEAPEBX_K@Z 0000000180026ab0     libucrt:inittime.obj
 0004:00000abc       $pdata$__acrt_locale_free_time 0000000180026abc     libucrt:inittime.obj
 0004:00000ac8       $pdata$?GetTableIndexFromLocaleName@@YAHPEB_W@Z 0000000180026ac8     libucrt:lcidtoname_downlevel.obj
 0004:00000ad4       $pdata$__acrt_DownlevelLocaleNameToLCID 0000000180026ad4     libucrt:lcidtoname_downlevel.obj
 0004:00000ae0       $pdata$?shortsort@@YAXPEAD0_KP6AHPEBX2@Z@Z 0000000180026ae0     libucrt:qsort.obj
 0004:00000aec       $pdata$2$?shortsort@@YAXPEAD0_KP6AHPEBX2@Z@Z 0000000180026aec     libucrt:qsort.obj
 0004:00000af8       $pdata$3$?shortsort@@YAXPEAD0_KP6AHPEBX2@Z@Z 0000000180026af8     libucrt:qsort.obj
 0004:00000b04       $pdata$qsort               0000000180026b04     libucrt:qsort.obj
 0004:00000b10       $pdata$4$qsort             0000000180026b10     libucrt:qsort.obj
 0004:00000b1c       $pdata$5$qsort             0000000180026b1c     libucrt:qsort.obj
 0004:00000b28       $pdata$strncpy_s           0000000180026b28     libucrt:strncpy_s.obj
 0004:00000b34       $pdata$strpbrk             0000000180026b34     libucrt:strpbrk.obj
 0004:00000b40       $pdata$_mbsdec_l           0000000180026b40     libucrt:mbsdec.obj
 0004:00000b4c       $pdata$?initialize_multibyte@@YAHXZ 0000000180026b4c     libucrt:multibyte_initializer.obj
 0004:00000b58       $pdata$?__acrt_LCMapStringA_stat@@YAHPEAU__crt_locale_pointers@@PEB_WKPEBDHPEADHHH@Z 0000000180026b58     libucrt:lcmapstringa.obj
 0004:00000b64       $pdata$__acrt_LCMapStringA 0000000180026b64     libucrt:lcmapstringa.obj
 0004:00000b70       $pdata$_msize              0000000180026b70     libucrt:msize.obj
 0004:00000b7c       $pdata$_realloc_base       0000000180026b7c     libucrt:realloc_base.obj
 0004:00000b88       $pdata$__acrt_lowio_create_handle_array 0000000180026b88     libucrt:osfinfo.obj
 0004:00000b94       $pdata$__acrt_lowio_destroy_handle_array 0000000180026b94     libucrt:osfinfo.obj
 0004:00000ba0       $pdata$__acrt_lowio_ensure_fh_exists 0000000180026ba0     libucrt:osfinfo.obj
 0004:00000bac       $pdata$_free_osfhnd        0000000180026bac     libucrt:osfinfo.obj
 0004:00000bb8       $pdata$_get_osfhandle      0000000180026bb8     libucrt:osfinfo.obj
 0004:00000bc4       $pdata$_isatty             0000000180026bc4     libucrt:isatty.obj
 0004:00000bd0       $pdata$__acrt_stdio_flush_nolock 0000000180026bd0     libucrt:fflush.obj
 0004:00000bdc       $pdata$_fflush_nolock      0000000180026bdc     libucrt:fflush.obj
 0004:00000be8       $pdata$common_flush_all    0000000180026be8     libucrt:fflush.obj
 0004:00000bf4       $pdata$_fcloseall          0000000180026bf4     libucrt:closeall.obj
 0004:00000c00       $pdata$__acrt_stdio_free_buffer_nolock 0000000180026c00     libucrt:_freebuf.obj
 0004:00000c0c       $pdata$??$?RV<lambda_b521505b218e5242e90febf6bfebc422>@@AEAV<lambda_6978c1fb23f02e42e1d9e99668cc68aa>@@V<lambda_314360699dd331753a4119843814e9a7>@@@?$__crt_seh_guarded_call@H@@QEAAH$$QEAV<lambda_b521505b218e5242e90febf6bfebc422>@@AEAV<lambda_6978c1fb23f02e42e1d9e99668cc68aa>@@$$QEAV<lambda_314360699dd331753a4119843814e9a7>@@@Z 0000000180026c0c     libucrt:commit.obj
 0004:00000c18       $pdata$_commit             0000000180026c18     libucrt:commit.obj
 0004:00000c24       $pdata$?write_double_translated_ansi_nolock@@YA?AUwrite_result@?A0x17268360@@HQEBDI@Z 0000000180026c24     libucrt:write.obj
 0004:00000c30       $pdata$?write_text_ansi_nolock@@YA?AUwrite_result@?A0x17268360@@HQEBDI@Z 0000000180026c30     libucrt:write.obj
 0004:00000c3c       $pdata$?write_text_utf16le_nolock@@YA?AUwrite_result@?A0x17268360@@HQEBDI@Z 0000000180026c3c     libucrt:write.obj
 0004:00000c48       $pdata$?write_text_utf8_nolock@@YA?AUwrite_result@?A0x17268360@@HQEBDI@Z 0000000180026c48     libucrt:write.obj
 0004:00000c54       $pdata$_write              0000000180026c54     libucrt:write.obj
 0004:00000c60       $pdata$_write_nolock       0000000180026c60     libucrt:write.obj
 0004:00000c78       $pdata$??$common_lseek_nolock@_J@@YA_JH_JH@Z 0000000180026c78     libucrt:lseek.obj
 0004:00000c84       $pdata$_fclose_nolock      0000000180026c84     libucrt:fclose.obj
 0004:00000c90       $pdata$fclose              0000000180026c90     libucrt:fclose.obj
 0004:00000c9c       $pdata$_putwch_nolock      0000000180026c9c     libucrt:putwch.obj
 0004:00000ca8       $pdata$_call_matherr       0000000180026ca8     libucrt:libm_error.obj
 0004:00000cb4       $pdata$_exception_enabled  0000000180026cb4     libucrt:libm_error.obj
 0004:00000cc0       $pdata$_handle_error       0000000180026cc0     libucrt:libm_error.obj
 0004:00000ccc       $pdata$__acrt_initialize_fma3 0000000180026ccc     libucrt:fma3_available.obj
 0004:00000cd8       $pdata$_log10_special      0000000180026cd8     libucrt:log_special.obj
 0004:00000ce4       $pdata$_log_special_common 0000000180026ce4     libucrt:log_special.obj
 0004:00000cf0       $pdata$??$?RV<lambda_bfedae4ebbf01fab1bb6dcc6a9e276e0>@@AEAV<lambda_2fe9b910cf3cbf4a0ab98a02ba45b3ec>@@V<lambda_237c231691f317818eb88cc1d5d642d6>@@@?$__crt_seh_guarded_call@H@@QEAAH$$QEAV<lambda_bfedae4ebbf01fab1bb6dcc6a9e276e0>@@AEAV<lambda_2fe9b910cf3cbf4a0ab98a02ba45b3ec>@@$$QEAV<lambda_237c231691f317818eb88cc1d5d642d6>@@@Z 0000000180026cf0     libucrt:close.obj
 0004:00000cfc       $pdata$_close              0000000180026cfc     libucrt:close.obj
 0004:00000d08       $pdata$_close_nolock       0000000180026d08     libucrt:close.obj
 0004:00000d14       $pdata$__dcrt_lowio_initialize_console_output 0000000180026d14     libucrt:initcon.obj
 0004:00000d20       $pdata$__dcrt_terminate_console_output 0000000180026d20     libucrt:initcon.obj
 0004:00000d38       $pdata$_raise_exc          0000000180026d38     libucrt:fpexcept.obj
 0004:00000d44       $pdata$_raise_exc_ex       0000000180026d44     libucrt:fpexcept.obj
 0004:00000d50       $pdata$_set_errno_from_matherr 0000000180026d50     libucrt:fpexcept.obj
 0004:00000d5c       $pdata$_clrfp              0000000180026d5c     libucrt:fpctrl.obj
 0004:00000d68       $pdata$_ctrlfp             0000000180026d68     libucrt:fpctrl.obj
 0004:00000d74       $pdata$_set_statfp         0000000180026d74     libucrt:fpctrl.obj
 0004:00000d80       $pdata$_statfp             0000000180026d80     libucrt:fpctrl.obj
 0004:00000d8c       $pdata$_IsNonwritableInCurrentImage 0000000180026d8c     LIBCMT:pesect.obj
 0004:00000d98       $pdata$__GSHandlerCheck    0000000180026d98     LIBCMT:_gshandler_.obj
 0004:00000da4       $pdata$__GSHandlerCheckCommon 0000000180026da4     LIBCMT:_gshandler_.obj
 0004:00000dbc       $pdata$__raise_securityfailure 0000000180026dbc     LIBCMT:gs_report.obj
 0004:00000dc8       $pdata$__report_gsfailure  0000000180026dc8     LIBCMT:gs_report.obj
 0004:00000dd4       $pdata$__report_rangecheckfailure 0000000180026dd4     LIBCMT:gs_report.obj
 0004:00000de0       $pdata$__report_securityfailure 0000000180026de0     LIBCMT:gs_report.obj
 0004:00000dec       $pdata$capture_current_context 0000000180026dec     LIBCMT:gs_report.obj
 0004:00000df8       $pdata$capture_previous_context 0000000180026df8     LIBCMT:gs_report.obj
 0004:00000e1c       $pdata$?fin$0@?0??dllmain_crt_process_attach@@YAHQEAUHINSTANCE__@@QEAX@Z@4HA 0000000180026e1c     LIBCMT:dll_dllmain.obj
 0004:00000e28       $pdata$?fin$0@?0??dllmain_crt_process_detach@@YAH_N@Z@4HA 0000000180026e28     LIBCMT:dll_dllmain.obj
 0004:00000e34       $pdata$?filt$0@?0??dllmain_dispatch@@YAHQEAUHINSTANCE__@@KQEAX@Z@4HA 0000000180026e34     LIBCMT:dll_dllmain.obj
 0004:00000e40       $pdata$__scrt_is_nonwritable_in_current_image$filt$0 0000000180026e40     LIBCMT:utility.obj
 0004:00000e4c       $pdata$?filt$0@?0??common_exit@@YAXHW4_crt_exit_cleanup_mode@@W4_crt_exit_return_mode@@@Z@4HA 0000000180026e4c     libucrt:exit.obj
 0004:00000e58       $pdata$?fin$1@?0??common_exit@@YAXHW4_crt_exit_cleanup_mode@@W4_crt_exit_return_mode@@@Z@4HA 0000000180026e58     libucrt:exit.obj
 0004:00000e64       $pdata$?fin$0@?0???$?RV<lambda_e24bbb7b643b32fcea6fa61b31d4c984>@@AEAV<lambda_275893d493268fdec8709772e3fcec0e>@@V<lambda_9d71df4d7cf3f480f8d633942495c3b0>@@@?$__crt_seh_guarded_call@H@@QEAAH$$QEAV<lambda_e24bbb7b643b32fcea6fa61b31d4c984>@@AEAV<lambda_275893d493268fdec8709772e3fcec0e>@@$$QEAV<lambda_9d71df4d7cf3f480f8d633942495c3b0>@@@Z@4HA 0000000180026e64     libucrt:onexit.obj
 0004:00000e70       $pdata$?fin$0@?0???$?RV<lambda_fb3a7dec4e47f37f22dae91bb15c9095>@@AEAV<lambda_698284760c8add0bfb0756c19673e34b>@@V<lambda_dfb8eca1e75fef3034a8fb18dd509707>@@@?$__crt_seh_guarded_call@X@@QEAAX$$QEAV<lambda_fb3a7dec4e47f37f22dae91bb15c9095>@@AEAV<lambda_698284760c8add0bfb0756c19673e34b>@@$$QEAV<lambda_dfb8eca1e75fef3034a8fb18dd509707>@@@Z@4HA 0000000180026e70     libucrt:per_thread_data.obj
 0004:00000e70       $pdata$?fin$0@?0???$?RV<lambda_b8c45f8f788dd370798f47cfe8ac3a86>@@AEAV<lambda_4e60a939b0d047cfe11ddc22648dfba9>@@V<lambda_332c3edc96d0294ec56c57d38c1cdfd5>@@@?$__crt_seh_guarded_call@H@@QEAAH$$QEAV<lambda_b8c45f8f788dd370798f47cfe8ac3a86>@@AEAV<lambda_4e60a939b0d047cfe11ddc22648dfba9>@@$$QEAV<lambda_332c3edc96d0294ec56c57d38c1cdfd5>@@@Z@4HA 0000000180026e70     libucrt:onexit.obj
 0004:00000e70       $pdata$?fin$0@?0???$?RV<lambda_72d1df2b273a38828b1ce30cbf4cdab5>@@AEAV<lambda_876a65b173b8412d3a47c70a915b0cf4>@@V<lambda_41932305e351933ebe8f8be3ed8bb5dc>@@@?$__crt_seh_guarded_call@X@@QEAAX$$QEAV<lambda_72d1df2b273a38828b1ce30cbf4cdab5>@@AEAV<lambda_876a65b173b8412d3a47c70a915b0cf4>@@$$QEAV<lambda_41932305e351933ebe8f8be3ed8bb5dc>@@@Z@4HA 0000000180026e70     libucrt:per_thread_data.obj
 0004:00000e70       $pdata$?fin$0@?0???$?RV<lambda_c36588078e9f5dfd39652860aa6b3aaf>@@AEAV<lambda_ec61778202f4f5fc7e7711acc23c3bca>@@V<lambda_dc9d2797ccde5d239b4a0efae8ebd7db>@@@?$__crt_seh_guarded_call@P6AXH@Z@@QEAAP6AXH@Z$$QEAV<lambda_c36588078e9f5dfd39652860aa6b3aaf>@@AEAV<lambda_ec61778202f4f5fc7e7711acc23c3bca>@@$$QEAV<lambda_dc9d2797ccde5d239b4a0efae8ebd7db>@@@Z@4HA 0000000180026e70     libucrt:signal.obj
 0004:00000e70       $pdata$?fin$0@?0???$?RV<lambda_5e887d1dcbef67a5eb4283622ba103bf>@@AEAV<lambda_4466841279450cc726390878d4a41900>@@V<lambda_341c25c0346d94847f1f3c463c57e077>@@@?$__crt_seh_guarded_call@X@@QEAAX$$QEAV<lambda_5e887d1dcbef67a5eb4283622ba103bf>@@AEAV<lambda_4466841279450cc726390878d4a41900>@@$$QEAV<lambda_341c25c0346d94847f1f3c463c57e077>@@@Z@4HA 0000000180026e70     libucrt:per_thread_data.obj
 0004:00000e70       $pdata$?fin$0@?0???$?RV<lambda_46352004c1216016012b18bd6f87e700>@@AEAV<lambda_3bd07e1a1191394380780325891bf33f>@@V<lambda_334532d3f185bcaa59b5be82d7d22bff>@@@?$__crt_seh_guarded_call@X@@QEAAX$$QEAV<lambda_46352004c1216016012b18bd6f87e700>@@AEAV<lambda_3bd07e1a1191394380780325891bf33f>@@$$QEAV<lambda_334532d3f185bcaa59b5be82d7d22bff>@@@Z@4HA 0000000180026e70     libucrt:per_thread_data.obj
 0004:00000e70       $pdata$?fin$0@?0???$?RV<lambda_efb9b808e93e29b6b799d3875462c817>@@AEAV<lambda_2c5d36f8a66580c563e29092409944b2>@@V<lambda_31e551fca1567ef2425714047646aa90>@@@?$__crt_seh_guarded_call@X@@QEAAX$$QEAV<lambda_efb9b808e93e29b6b799d3875462c817>@@AEAV<lambda_2c5d36f8a66580c563e29092409944b2>@@$$QEAV<lambda_31e551fca1567ef2425714047646aa90>@@@Z@4HA 0000000180026e70     libucrt:mbctype.obj
 0004:00000e7c       $pdata$?fin$0@?0???$?RV<lambda_9431c60049192bb82166e0947f95a2e9>@@AEAV<lambda_85fa512c59a4d94d4a89f575eefd92a6>@@V<lambda_487febba6ca58d9ce348204d67e1dba3>@@@?$__crt_seh_guarded_call@X@@QEAAX$$QEAV<lambda_9431c60049192bb82166e0947f95a2e9>@@AEAV<lambda_85fa512c59a4d94d4a89f575eefd92a6>@@$$QEAV<lambda_487febba6ca58d9ce348204d67e1dba3>@@@Z@4HA 0000000180026e7c     libucrt:wsetlocale.obj
 0004:00000e88       $pdata$?fin$0@?0??update_thread_multibyte_data_internal@@YAPEAU__crt_multibyte_data@@QEAU__acrt_ptd@@QEAU1@@Z@4HA 0000000180026e88     libucrt:mbctype.obj
 0004:00000e94       $pdata$__acrt_initialize_lowio$fin$0 0000000180026e94     libucrt:ioinit.obj
 0004:00000e94       $pdata$__acrt_lowio_ensure_fh_exists$fin$0 0000000180026e94     libucrt:osfinfo.obj
 0004:00000ea0       $pdata$_query_new_handler$fin$0 0000000180026ea0     libucrt:new_handler.obj
 0004:00000eac       $pdata$raise$fin$0         0000000180026eac     libucrt:signal.obj
 0004:00000eb8       $pdata$__acrt_update_thread_locale_data$fin$0 0000000180026eb8     libucrt:locale_refcounting.obj
 0004:00000ec4       $pdata$common_flush_all$fin$0 0000000180026ec4     libucrt:fflush.obj
 0004:00000ed0       $pdata$common_flush_all$fin$1 0000000180026ed0     libucrt:fflush.obj
 0004:00000edc       $pdata$_fcloseall$fin$0    0000000180026edc     libucrt:closeall.obj
 0004:00000ee8       $pdata$_write$fin$0        0000000180026ee8     libucrt:write.obj
 0004:00000ef4       $pdata$fclose$fin$0        0000000180026ef4     libucrt:fclose.obj
 0004:00000f00       $pdata$?fin$0@?0???$?RV<lambda_bfedae4ebbf01fab1bb6dcc6a9e276e0>@@AEAV<lambda_2fe9b910cf3cbf4a0ab98a02ba45b3ec>@@V<lambda_237c231691f317818eb88cc1d5d642d6>@@@?$__crt_seh_guarded_call@H@@QEAAH$$QEAV<lambda_bfedae4ebbf01fab1bb6dcc6a9e276e0>@@AEAV<lambda_2fe9b910cf3cbf4a0ab98a02ba45b3ec>@@$$QEAV<lambda_237c231691f317818eb88cc1d5d642d6>@@@Z@4HA 0000000180026f00     libucrt:close.obj
 0004:00000f00       $pdata$?fin$0@?0???$?RV<lambda_b521505b218e5242e90febf6bfebc422>@@AEAV<lambda_6978c1fb23f02e42e1d9e99668cc68aa>@@V<lambda_314360699dd331753a4119843814e9a7>@@@?$__crt_seh_guarded_call@H@@QEAAH$$QEAV<lambda_b521505b218e5242e90febf6bfebc422>@@AEAV<lambda_6978c1fb23f02e42e1d9e99668cc68aa>@@$$QEAV<lambda_314360699dd331753a4119843814e9a7>@@@Z@4HA 0000000180026f00     libucrt:commit.obj
 0004:00000f0c       $pdata$_ctrlfp$filt$0      0000000180026f0c     libucrt:fpctrl.obj
 0004:00000f18       $pdata$_IsNonwritableInCurrentImage$filt$0 0000000180026f18     LIBCMT:pesect.obj
 0005:00000000       __guard_fids__             0000000180027000     libucrt:initialization.obj
 0005:00000060       __guard_fids___acrt_initialize_ptd 0000000180027060     libucrt:per_thread_data.obj
 0005:00000064       __guard_fids_??$expand_argument_wildcards@D@@YAHQEAD0AEAV?$argument_list@D@?A0x5f5c8891@@@Z 0000000180027064     libucrt:argv_wildcards.obj
 0005:00000068       __guard_fids__             0000000180027068     libucrt:locale_initializer.obj
 0005:0000006c       __guard_fids__             000000018002706c     libucrt:multibyte_initializer.obj
 0005:00000070       __guard_fids__             0000000180027070     libucrt:stdio_initializer.obj
 0005:00000074       __guard_fids__             0000000180027074     libucrt:stdio_initializer.obj
 0005:00000078       __guard_fids__             0000000180027078     libucrt:fma3_initializer.obj
 0005:0000007c       __guard_fids__             000000018002707c     libucrt:console_output_initializer.obj
 0005:00000080       __guard_fids_?dllmain_crt_process_attach@@YAHQEAUHINSTANCE__@@QEAX@Z 0000000180027080     LIBCMT:dll_dllmain.obj
 0005:00000088       __guard_fids_?dllmain_dispatch@@YAHQEAUHINSTANCE__@@KQEAX@Z 0000000180027088     LIBCMT:dll_dllmain.obj
 0005:0000008c       __guard_fids__             000000018002708c     LIBCMT:guard_support.obj
 0005:00000090       __guard_fids___vcrt_initialize_ptd 0000000180027090     libvcruntime:per_thread_data.obj
 0006:00000060       $R000000                   0000000180028060     ConEmuLn.res
