 ConEmuLn.x64

 Timestamp is 564923e5 (Mon Nov 16 03:31:33 2015)

 Preferred load address is 0000000180000000

 Start         Length     Name                   Class
 0001:00000000 00005611H .text                   CODE
 0001:00005620 0000005eH .text$00                CODE
 0001:0000567e 00000000H .text$x                 CODE
 0002:00000000 00000120H .idata$5                DATA
 0002:00000120 000004d1H .rdata                  DATA
 0002:000005f8 0000026cH .xdata                  DATA
 0002:00000864 00000064H .idata$2                DATA
 0002:000008c8 00000014H .idata$3                DATA
 0002:000008e0 00000120H .idata$4                DATA
 0002:00000a00 0000021aH .idata$6                DATA
 0002:00000c20 0000018fH .edata                  DATA
 0003:00000000 000001d0H .data                   DATA
 0003:000001d0 00008fe0H .bss                    DATA
 0004:00000000 00000390H .pdata                  DATA
 0005:00000000 00000058H .rsrc$01                DATA
 0005:00000060 000002e8H .rsrc$02                DATA

  Address         Publics by Value              Rva+Base               Lib:Object

 0000:00000000       ___safe_se_handler_count   0000000000000000     <absolute>
 0000:00000000       ___safe_se_handler_table   0000000000000000     <absolute>
 0000:00000000       __ImageBase                0000000180000000     <linker-defined>
 0001:00000000       GetMinFarVersionW          0000000180001000 f   ConEmuLn.obj
 0001:00000008       ?GetPluginInfoWcmn@@YAXPEAX@Z 0000000180001008 f   ConEmuLn.obj
 0001:0000019c       ?PaintLines@@YAXPEAUHDC__@@KHHHHH@Z 000000018000119c f   ConEmuLn.obj
 0001:000002c8       ?PaintBack@@YAXPEAUHDC__@@KUtagRECT@@@Z 00000001800012c8 f   ConEmuLn.obj
 0001:00000310       ?PaintConEmuBackground@@YAHPEAUPaintBackgroundArg@@@Z 0000000180001310 f   ConEmuLn.obj
 0001:000005a8       ?SettingsLoad@@YAXXZ       00000001800015a8 f   ConEmuLn.obj
 0001:000005fc       ?SettingsLoadReg@@YAXPEB_W@Z 00000001800015fc f   ConEmuLn.obj
 0001:0000070c       ?SettingsSave@@YAXXZ       000000018000170c f   ConEmuLn.obj
 0001:00000758       ?SettingsSaveReg@@YAXPEB_W@Z 0000000180001758 f   ConEmuLn.obj
 0001:0000081c       ?StartPlugin@@YAXH@Z       000000018000181c f   ConEmuLn.obj
 0001:000009bc       ?ExitPlugin@@YAXXZ         00000001800019bc f   ConEmuLn.obj
 0001:00000a10       ?ExitFARW3@@YAXPEAX@Z      0000000180001a10 f   ConEmuLn.obj
 0001:00000a10       ExitFARW                   0000000180001a10 f   ConEmuLn.obj
 0001:00000a4c       ?GetMsgW@@YAPEB_WH@Z       0000000180001a4c f   ConEmuLn.obj
 0001:00000a98       ConfigureW                 0000000180001a98 f   ConEmuLn.obj
 0001:00000ae0       ?ConfigureW3@@YAHPEAX@Z    0000000180001ae0 f   ConEmuLn.obj
 0001:00000b28       ?OpenPluginWcmn@@YAPEAXH_J@Z 0000000180001b28 f   ConEmuLn.obj
 0001:00000b60       ?OpenW@@YAPEAXPEBX@Z       0000000180001b60 f   ConEmuLn.obj
 0001:00000b90       ?StringCchCopyW@@YAJPEA_W_KPEB_W@Z 0000000180001b90 f i ConEmuLn.obj
 0001:00000bfc       ?StringCchCatW@@YAJPEA_W_KPEB_W@Z 0000000180001bfc f i ConEmuLn.obj
 0001:00000ebc       ?LoadFarVersion@@YAHXZ     0000000180001ebc f   ConEmuLn.obj
 0001:00000fd8       SetStartupInfoW            0000000180001fd8 f   ConEmuLn.obj
 0001:0000103c       ?OnConEmuLoaded@@YAXPEAUConEmuLoadedArg@@@Z 000000018000203c f   ConEmuLn.obj
 0001:00001070       DllMain                    0000000180002070 f   ConEmuLn.obj
 0001:000010c8       _DllMainCRTStartup         00000001800020c8 f   ConEmuLn.obj
 0001:000010dc       ?GetPluginInfoW995@@YAXPEAX@Z 00000001800020dc f   ConEmuLn995.obj
 0001:00001154       ?SetStartupInfoW995@@YAXPEAX@Z 0000000180002154 f   ConEmuLn995.obj
 0001:000012f4       OpenPluginW                00000001800022f4 f   ConEmuLn995.obj
 0001:00001314       ?ExitFARW995@@YAXXZ        0000000180002314 f   ConEmuLn995.obj
 0001:00001368       ?GetMsgW995@@YAPEB_WH@Z    0000000180002368 f   ConEmuLn995.obj
 0001:00001ee8       ?ConfigureW995@@YAHH@Z     0000000180002ee8 f   ConEmuLn995.obj
 0001:00001f04       ?SettingsLoadW995@@YAXXZ   0000000180002f04 f   ConEmuLn995.obj
 0001:00001f10       ?SettingsSaveW995@@YAXXZ   0000000180002f10 f   ConEmuLn995.obj
 0001:00001f1c       ?GetPluginInfoW1900@@YAXPEAX@Z 0000000180002f1c f   ConEmuLn1900.obj
 0001:00001fa4       ?SetStartupInfoW1900@@YAXPEAX@Z 0000000180002fa4 f   ConEmuLn1900.obj
 0001:000020e0       ?OpenW2800@@YAPEAXPEBX@Z   00000001800030e0 f   ConEmuLn2800.obj
 0001:000020e0       ?OpenW1900@@YAPEAXPEBX@Z   00000001800030e0 f   ConEmuLn1900.obj
 0001:00002104       ?ExitFARW1900@@YAXXZ       0000000180003104 f   ConEmuLn1900.obj
 0001:00002140       ?GetMsgW1900@@YAPEB_WH@Z   0000000180003140 f   ConEmuLn1900.obj
 0001:00002dc4       ?ConfigureW1900@@YAHH@Z    0000000180003dc4 f   ConEmuLn1900.obj
 0001:00002de0       ?SettingsLoadW1900@@YAXXZ  0000000180003de0 f   ConEmuLn1900.obj
 0001:00002f24       ?SettingsSaveW1900@@YAXXZ  0000000180003f24 f   ConEmuLn1900.obj
 0001:00003048       GetGlobalInfoW             0000000180004048 f   ConEmuLn2800.obj
 0001:000030fc       ?GetPluginInfoW2800@@YAXPEAX@Z 00000001800040fc f   ConEmuLn2800.obj
 0001:00003184       ?SetStartupInfoW2800@@YAXPEAX@Z 0000000180004184 f   ConEmuLn2800.obj
 0001:000032c0       ?ExitFARW2800@@YAXXZ       00000001800042c0 f   ConEmuLn2800.obj
 0001:000032fc       ?GetMsgW2800@@YAPEB_WH@Z   00000001800042fc f   ConEmuLn2800.obj
 0001:00003f4c       ?ConfigureW2800@@YAHH@Z    0000000180004f4c f   ConEmuLn2800.obj
 0001:00003f68       ?SettingsLoadW2800@@YAXXZ  0000000180004f68 f   ConEmuLn2800.obj
 0001:000040b4       ?SettingsSaveW2800@@YAXXZ  00000001800050b4 f   ConEmuLn2800.obj
 0001:000041dc       GetMinFarVersion           00000001800051dc f   ConEmuLnA.obj
 0001:00004214       SetStartupInfo             0000000180005214 f   ConEmuLnA.obj
 0001:000043e0       GetPluginInfo              00000001800053e0 f   ConEmuLnA.obj
 0001:0000446c       ExitFAR                    000000018000546c f   ConEmuLnA.obj
 0001:00005058       Configure                  0000000180006058 f   ConEmuLnA.obj
 0001:00005074       OpenPlugin                 0000000180006074 f   ConEmuLnA.obj
 0001:00005094       ?SettingsLoadA@@YAXXZ      0000000180006094 f   ConEmuLnA.obj
 0001:000050a0       ?SettingsSaveA@@YAXXZ      00000001800060a0 f   ConEmuLnA.obj
 0001:000050ac       ?HeapInitialize@@YA_NXZ    00000001800060ac f   Memory.obj
 0001:000050e4       ?HeapDeinitialize@@YAXXZ   00000001800060e4 f   Memory.obj
 0001:00005108       ?xf_calloc@@YAPEAX_K0@Z    0000000180006108 f   Memory.obj
 0001:00005124       ?xf_free@@YAXPEAX@Z        0000000180006124 f   Memory.obj
 0001:00005150       memset                     0000000180006150 f   libCRT64:memset.obj
 0001:00005180       memmove                    0000000180006180 f   libCRT64:memmove.obj
 0001:000053b0       wcstoul                    00000001800063b0 f   libCRT64:strtol.obj
 0001:000053c0       memcpy                     00000001800063c0 f   libCRT64:memcpy.obj
 0001:000055b0       strtoul                    00000001800065b0 f   libCRT64:strtol.obj
 0001:000055bc       VerQueryValueW             00000001800065bc f   version:VERSION.dll
 0001:000055c2       GetFileVersionInfoW        00000001800065c2 f   version:VERSION.dll
 0001:000055c8       GetFileVersionInfoSizeW    00000001800065c8 f   version:VERSION.dll
 0001:000055e0       _NLG_Notify                00000001800065e0 f   LIBCMT:notify.obj
 0001:00005600       __NLG_Dispatch2            0000000180006600 f   LIBCMT:notify.obj
 0001:00005610       __NLG_Return2              0000000180006610 f   LIBCMT:notify.obj
 0001:00005630       __chkstk                   0000000180006630 f   LIBCMT:chkstk.obj
 0001:00005630       _alloca_probe              0000000180006630     LIBCMT:chkstk.obj
 0002:00000000       __imp_RegQueryValueExW     0000000180007000     advapi32:ADVAPI32.dll
 0002:00000008       __imp_RegOpenKeyExW        0000000180007008     advapi32:ADVAPI32.dll
 0002:00000010       __imp_RegSetValueExW       0000000180007010     advapi32:ADVAPI32.dll
 0002:00000018       __imp_RegCreateKeyExW      0000000180007018     advapi32:ADVAPI32.dll
 0002:00000020       __imp_RegCloseKey          0000000180007020     advapi32:ADVAPI32.dll
 0002:00000028       \177ADVAPI32_NULL_THUNK_DATA 0000000180007028     advapi32:ADVAPI32.dll
 0002:00000030       __imp_SelectObject         0000000180007030     gdi32:GDI32.dll
 0002:00000038       __imp_CreateSolidBrush     0000000180007038     gdi32:GDI32.dll
 0002:00000040       __imp_MoveToEx             0000000180007040     gdi32:GDI32.dll
 0002:00000048       __imp_LineTo               0000000180007048     gdi32:GDI32.dll
 0002:00000050       __imp_DeleteObject         0000000180007050     gdi32:GDI32.dll
 0002:00000058       __imp_CreatePen            0000000180007058     gdi32:GDI32.dll
 0002:00000060       \177GDI32_NULL_THUNK_DATA  0000000180007060     gdi32:GDI32.dll
 0002:00000068       __imp_GetModuleFileNameW   0000000180007068     kernel32:KERNEL32.dll
 0002:00000070       __imp_lstrcpynW            0000000180007070     kernel32:KERNEL32.dll
 0002:00000078       __imp_MultiByteToWideChar  0000000180007078     kernel32:KERNEL32.dll
 0002:00000080       __imp_lstrlenA             0000000180007080     kernel32:KERNEL32.dll
 0002:00000088       __imp_lstrcpyA             0000000180007088     kernel32:KERNEL32.dll
 0002:00000090       __imp_HeapCreate           0000000180007090     kernel32:KERNEL32.dll
 0002:00000098       __imp_HeapAlloc            0000000180007098     kernel32:KERNEL32.dll
 0002:000000a0       __imp_lstrcpyW             00000001800070a0     kernel32:KERNEL32.dll
 0002:000000a8       __imp_HeapFree             00000001800070a8     kernel32:KERNEL32.dll
 0002:000000b0       __imp_lstrlenW             00000001800070b0     kernel32:KERNEL32.dll
 0002:000000b8       __imp_VirtualProtect       00000001800070b8     kernel32:KERNEL32.dll
 0002:000000c0       __imp_GetLastError         00000001800070c0     kernel32:KERNEL32.dll
 0002:000000c8       __imp_HeapDestroy          00000001800070c8     kernel32:KERNEL32.dll
 0002:000000d0       __imp_lstrcpynA            00000001800070d0     kernel32:KERNEL32.dll
 0002:000000d8       \177KERNEL32_NULL_THUNK_DATA 00000001800070d8     kernel32:KERNEL32.dll
 0002:000000e0       __imp_wsprintfW            00000001800070e0     user32:USER32.dll
 0002:000000e8       __imp_FillRect             00000001800070e8     user32:USER32.dll
 0002:000000f0       __imp_wsprintfA            00000001800070f0     user32:USER32.dll
 0002:000000f8       \177USER32_NULL_THUNK_DATA 00000001800070f8     user32:USER32.dll
 0002:00000100       __imp_GetFileVersionInfoSizeW 0000000180007100     version:VERSION.dll
 0002:00000108       __imp_VerQueryValueW       0000000180007108     version:VERSION.dll
 0002:00000110       __imp_GetFileVersionInfoW  0000000180007110     version:VERSION.dll
 0002:00000118       \177VERSION_NULL_THUNK_DATA 0000000180007118     version:VERSION.dll
 0002:00000120       ??_C@_0L@DJCGGOCO@ConfigureW?$AA@ 0000000180007120     ConEmuLn.obj
 0002:00000130       ??_C@_08BCACMCCB@ExitFARW?$AA@ 0000000180007130     ConEmuLn.obj
 0002:00000140       ??_C@_1CA@GLKFLGCI@?$AAH?$AAi?$AAl?$AAi?$AAg?$AAh?$AAt?$AAP?$AAl?$AAu?$AAg?$AAB?$AAa?$AAc?$AAk?$AA?$AA@ 0000000180007140     ConEmuLn.obj
 0002:00000160       ??_C@_1BO@FGCOGFB@?$AAH?$AAi?$AAl?$AAi?$AAg?$AAh?$AAt?$AAP?$AAl?$AAu?$AAg?$AAi?$AAn?$AAs?$AA?$AA@ 0000000180007160     ConEmuLn.obj
 0002:00000180       ??_C@_1BI@PPOFOFEE@?$AAH?$AAi?$AAl?$AAi?$AAg?$AAh?$AAt?$AAT?$AAy?$AAp?$AAe?$AA?$AA@ 0000000180007180     ConEmuLn.obj
 0002:00000198       ??_C@_1CC@KGIANIMF@?$AAL?$AAi?$AAn?$AAe?$AAs?$AAV?$AAi?$AAe?$AAw?$AAe?$AAr?$AAC?$AAo?$AAl?$AAo?$AAr?$AA?$AA@ 0000000180007198     ConEmuLn.obj
 0002:000001c0       ??_C@_1BI@IMFGPMJI@?$AAL?$AAi?$AAn?$AAe?$AAs?$AAV?$AAi?$AAe?$AAw?$AAe?$AAr?$AA?$AA@ 00000001800071c0     ConEmuLn.obj
 0002:000001d8       ??_C@_1CC@LODMIFLF@?$AAL?$AAi?$AAn?$AAe?$AAs?$AAE?$AAd?$AAi?$AAt?$AAo?$AAr?$AAC?$AAo?$AAl?$AAo?$AAr?$AA?$AA@ 00000001800071d8     ConEmuLn.obj
 0002:00000200       ??_C@_1BI@DNACCAMK@?$AAL?$AAi?$AAn?$AAe?$AAs?$AAE?$AAd?$AAi?$AAt?$AAo?$AAr?$AA?$AA@ 0000000180007200     ConEmuLn.obj
 0002:00000218       ??_C@_1BG@FMPDIDHG@?$AAL?$AAi?$AAn?$AAe?$AAs?$AAC?$AAo?$AAl?$AAo?$AAr?$AA?$AA@ 0000000180007218     ConEmuLn.obj
 0002:00000230       ??_C@_1BG@GKMEIIHO@?$AAL?$AAi?$AAn?$AAe?$AAs?$AAP?$AAa?$AAn?$AAe?$AAl?$AA?$AA@ 0000000180007230     ConEmuLn.obj
 0002:00000248       ??_C@_1BM@GCLEPEKO@?$AAP?$AAl?$AAu?$AAg?$AAi?$AAn?$AAE?$AAn?$AAa?$AAb?$AAl?$AAe?$AAd?$AA?$AA@ 0000000180007248     ConEmuLn.obj
 0002:00000264       ??_C@_11LOCGONAA@?$AA?$AA@ 0000000180007264     ConEmuLn.obj
 0002:00000268       ??_C@_1CA@GGFPMHLH@?$AA?6?$AAE?$AAr?$AAr?$AAC?$AAo?$AAd?$AAe?$AA?$DN?$AA0?$AAx?$AA?$CF?$AA0?$AA8?$AAX?$AA?$AA@ 0000000180007268     ConEmuLn.obj
 0002:00000290       ??_C@_1EG@IINOBDEG@?$AAI?$AAn?$AAv?$AAa?$AAl?$AAi?$AAd?$AA?5?$AAa?$AAs?$AAM?$AAo?$AAd?$AAu?$AAl?$AAe?$AAP?$AAa?$AAt?$AAh?$AA?5?$AAw?$AAa?$AAs?$AA?5?$AAs?$AAp?$AAe?$AAc?$AAi?$AAf?$AAi@ 0000000180007290     ConEmuLn.obj
 0002:000002e0       ??_C@_1GC@CPPHDKJK@?$AAL?$AAo?$AAa?$AAd?$AAA?$AAp?$AAp?$AAV?$AAe?$AAr?$AAs?$AAi?$AAo?$AAn?$AA?4?$AAG?$AAe?$AAt?$AAF?$AAi?$AAl?$AAe?$AAV?$AAe?$AAr?$AAs?$AAi?$AAo?$AAn?$AAI?$AAn?$AAf@ 00000001800072e0     ConEmuLn.obj
 0002:00000350       ??_C@_1GC@BINFLBDC@?$AAL?$AAo?$AAa?$AAd?$AAA?$AAp?$AAp?$AAV?$AAe?$AAr?$AAs?$AAi?$AAo?$AAn?$AA?5?$AAf?$AAa?$AAi?$AAl?$AAe?$AAd?$AA?$CB?$AA?5?$AAC?$AAa?$AAn?$AA?8?$AAt?$AA?5?$AAa?$AAl?$AAl@ 0000000180007350     ConEmuLn.obj
 0002:000003c0       ??_C@_1FK@HILEEFML@?$AAL?$AAo?$AAa?$AAd?$AAA?$AAp?$AAp?$AAV?$AAe?$AAr?$AAs?$AAi?$AAo?$AAn?$AA?4?$AAG?$AAe?$AAt?$AAF?$AAi?$AAl?$AAe?$AAV?$AAe?$AAr?$AAs?$AAi?$AAo?$AAn?$AAI?$AAn?$AAf@ 00000001800073c0     ConEmuLn.obj
 0002:00000420       ??_C@_1FG@DPPGENBC@?$AAL?$AAo?$AAa?$AAd?$AAA?$AAp?$AAp?$AAV?$AAe?$AAr?$AAs?$AAi?$AAo?$AAn?$AA?4?$AAV?$AAe?$AAr?$AAQ?$AAu?$AAe?$AAr?$AAy?$AAV?$AAa?$AAl?$AAu?$AAe?$AA?$CI?$AA?$CC?$AA?2?$AA?$CC@ 0000000180007420     ConEmuLn.obj
 0002:00000478       ??_C@_13FPGAJAPJ@?$AA?2?$AA?$AA@ 0000000180007478     ConEmuLn.obj
 0002:00000480       ??_C@_1FG@LNADFPCE@?$AAL?$AAo?$AAa?$AAd?$AAF?$AAa?$AAr?$AAV?$AAe?$AAr?$AAs?$AAi?$AAo?$AAn?$AA?4?$AAG?$AAe?$AAt?$AAM?$AAo?$AAd?$AAu?$AAl?$AAe?$AAF?$AAi?$AAl?$AAe?$AAN?$AAa?$AAm?$AAe@ 0000000180007480     ConEmuLn.obj
 0002:000004d8       ??_C@_1BE@MMJMCNIO@?$AAC?$AAo?$AAn?$AAE?$AAm?$AAu?$AAL?$AAn?$AA?2?$AA?$AA@ 00000001800074d8     ConEmuLn995.obj
 0002:000004f0       ??_C@_19OMFGMPJN@?$AA?$CF?$AA0?$AA6?$AAX?$AA?$AA@ 00000001800074f0     ConEmuLn995.obj
 0002:00000500       ??_C@_1BC@KLDFICIN@?$AA0?$AAx?$AAX?$AAX?$AAX?$AAX?$AAX?$AAX?$AA?$AA@ 0000000180007500     ConEmuLn995.obj
 0002:00000518       ??_C@_1DE@DJEAMLPH@?$AAC?$AAo?$AAn?$AAE?$AAm?$AAu?$AA?4?$AAM?$AAa?$AAx?$AAi?$AAm?$AAu?$AAs?$AA5?$AA?$EA?$AAg?$AAm?$AAa?$AAi?$AAl?$AA?4?$AAc?$AAo?$AAm?$AA?$AA@ 0000000180007518     ConEmuLn2800.obj
 0002:00000550       ??_C@_1GC@KMIACAL@?$AAP?$AAa?$AAi?$AAn?$AAt?$AA?5?$AAu?$AAn?$AAd?$AAe?$AAr?$AAl?$AAi?$AAn?$AAe?$AAd?$AA?5?$AAb?$AAa?$AAc?$AAk?$AAg?$AAr?$AAo?$AAu?$AAn?$AAd?$AA?5?$AAi?$AAn?$AA?5?$AAt@ 0000000180007550     ConEmuLn2800.obj
 0002:000005b8       ??_C@_1CE@PCHJHFGJ@?$AAC?$AAo?$AAn?$AAE?$AAm?$AAu?$AA?5?$AAU?$AAn?$AAd?$AAe?$AAr?$AAl?$AAi?$AAn?$AAe?$AAs?$AA?$AA@ 00000001800075b8     ConEmuLn2800.obj
 0002:000005dc       ??_C@_04JCFDBOEJ@?$CF06X?$AA@ 00000001800075dc     ConEmuLnA.obj
 0002:000005e8       ??_C@_08KOICIHPP@0xXXXXXX?$AA@ 00000001800075e8     ConEmuLnA.obj
 0002:00000864       __IMPORT_DESCRIPTOR_KERNEL32 0000000180007864     kernel32:KERNEL32.dll
 0002:00000878       __IMPORT_DESCRIPTOR_USER32 0000000180007878     user32:USER32.dll
 0002:0000088c       __IMPORT_DESCRIPTOR_GDI32  000000018000788c     gdi32:GDI32.dll
 0002:000008a0       __IMPORT_DESCRIPTOR_ADVAPI32 00000001800078a0     advapi32:ADVAPI32.dll
 0002:000008b4       __IMPORT_DESCRIPTOR_VERSION 00000001800078b4     version:VERSION.dll
 0002:000008c8       __NULL_IMPORT_DESCRIPTOR   00000001800078c8     kernel32:KERNEL32.dll
 0003:00000000       ?g_TerminatedThreadIdx@@3JA 0000000180008000     WThreads.obj
 0003:00000010       ?gbLinesColorPanel@@3HA    0000000180008010     ConEmuLn.obj
 0003:00000014       ?gcrLinesColorPanel@@3KA   0000000180008014     ConEmuLn.obj
 0003:00000018       ?gcrLinesColorEditor@@3KA  0000000180008018     ConEmuLn.obj
 0003:0000001c       ?gcrLinesColorViewer@@3KA  000000018000801c     ConEmuLn.obj
 0003:00000020       ?gcrHilightPlugBack@@3KA   0000000180008020     ConEmuLn.obj
 0003:00000030       ?gSettings@@3PAUConEmuLnSettings@@A 0000000180008030     ConEmuLn.obj
 0003:00000140       ?Far3Func@@3PAUExportFunc@@A 0000000180008140     ConEmuLn.obj
 0003:00000188       ?guid_ConEmuLn@@3U_GUID@@A 0000000180008188     ConEmuLn2800.obj
 0003:00000198       ?guid_ConEmuLnCfgDlg@@3U_GUID@@A 0000000180008198     ConEmuLn2800.obj
 0003:000001a8       ?guid_ConEmuLnPluginMenu@@3U_GUID@@A 00000001800081a8     ConEmuLn2800.obj
 0003:000001b8       ?guid_ConEmuLnPluginConfig@@3U_GUID@@A 00000001800081b8     ConEmuLn2800.obj
 0003:000089d0       ?g_ThreadsIdx@@3JA         00000001800109d0     WThreads.obj
 0003:000089d8       ?ghPluginModule@@3PEAUHINSTANCE__@@EA 00000001800109d8     ConEmuLn.obj
 0003:000089e0       ?gFarVersion@@3UFarVersion@@A 00000001800109e0     ConEmuLn.obj
 0003:000089ec       ?gbInStartPlugin@@3_NA     00000001800109ec     ConEmuLn.obj
 0003:000089ed       ?gbSetStartupInfoOk@@3_NA  00000001800109ed     ConEmuLn.obj
 0003:000089f8       ?gbBackgroundEnabled@@3HA  00000001800109f8     ConEmuLn.obj
 0003:000089fc       ?gbLinesColorEditor@@3HA   00000001800109fc     ConEmuLn.obj
 0003:00008a00       ?gbLinesColorViewer@@3HA   0000000180010a00     ConEmuLn.obj
 0003:00008a04       ?giHilightType@@3HA        0000000180010a04     ConEmuLn.obj
 0003:00008a08       ?gbHilightPlugins@@3HA     0000000180010a08     ConEmuLn.obj
 0003:00008a0c       ?gbInfoW_OK@@3HA           0000000180010a0c     ConEmuLn.obj
 0003:00008a18       ?InfoW995@@3PEAUPluginStartupInfo@@EA 0000000180010a18     ConEmuLn995.obj
 0003:00008a20       ?FSFW995@@3PEAUFarStandardFunctions@@EA 0000000180010a20     ConEmuLn995.obj
 0003:00008c40       ?InfoW1900@@3PEAUPluginStartupInfo@@EA 0000000180010c40     ConEmuLn1900.obj
 0003:00008c48       ?FSFW1900@@3PEAUFarStandardFunctions@@EA 0000000180010c48     ConEmuLn1900.obj
 0003:00008e60       ?InfoW2800@@3PEAUPluginStartupInfo@@EA 0000000180010e60     ConEmuLn2800.obj
 0003:00008e68       ?FSFW2800@@3PEAUFarStandardFunctions@@EA 0000000180010e68     ConEmuLn2800.obj
 0003:00009080       ?InfoA@@3PEAUPluginStartupInfo@@EA 0000000180011080     ConEmuLnA.obj
 0003:00009088       ?FSFA@@3PEAUFarStandardFunctions@@EA 0000000180011088     ConEmuLnA.obj
 0003:000091a0       ?AssertMsgBox@@3P6AHPEB_WI0PEAUHWND__@@_N@ZEA 00000001800111a0     MAssert.obj
 0003:000091a8       ?ghHeap@@3PEAXEA           00000001800111a8     Memory.obj

 entry point at        0001:000010c8

 Static symbols

 0001:00000038       ?ChangeExports@@YA_NPEBUExportFunc@@PEAUHINSTANCE__@@@Z 0000000180001038 f   ConEmuLn.obj
 0001:00000cc4       ?LoadModuleVersion@@YA_NPEB_WAEAUtagVS_FIXEDFILEINFO@@PEA_W_K@Z 0000000180001cc4 f   ConEmuLn.obj
 0001:00001398       ?ConfigDlgProc@@YA_JPEAXHH_J@Z 0000000180002398 f   ConEmuLn995.obj
 0001:000014fc       ?ConfigureProc@@YAHH@Z     00000001800024fc f   ConEmuLn995.obj
 0001:00002174       ?ConfigDlgProc@@YA_JPEAXHH0@Z 0000000180003174 f   ConEmuLn1900.obj
 0001:000022d8       ?ConfigureProc@@YAHH@Z     00000001800032d8 f   ConEmuLn1900.obj
 0001:00003330       ?ConfigDlgProc@@YA_JPEAX_J10@Z 0000000180004330 f   ConEmuLn2800.obj
 0001:000034a8       ?ConfigureProc@@YAHH@Z     00000001800044a8 f   ConEmuLn2800.obj
 0001:000044c8       ?ConfigDlgProc@@YA_JPEAXHH_J@Z 00000001800054c8 f   ConEmuLnA.obj
 0001:0000462c       ?ConfigureProc@@YAHH@Z     000000018000562c f   ConEmuLnA.obj
 0001:000051e0       ?strtoxl@@YAKPEB_WPEAPEA_WHH@Z 00000001800061e0 f   libCRT64:strtol.obj
 0001:000053f0       ?strtoxl@@YAKPEBDPEAPEADHH@Z 00000001800063f0 f   libCRT64:strtol.obj
